
kernel8.elf:     file format elf64-littleaarch64


Disassembly of section .text:

0000000000080000 <_start>:
   80000:	d5384240 	mrs	x0, currentel
   80004:	f100101f 	cmp	x0, #0x4
   80008:	54000340 	b.eq	80070 <_start+0x70>  // b.none
   8000c:	580003e0 	ldr	x0, 80088 <_start+0x88>
   80010:	d51c4100 	msr	sp_el1, x0
   80014:	d53ce100 	mrs	x0, cnthctl_el2
   80018:	b2400400 	orr	x0, x0, #0x3
   8001c:	d51ce100 	msr	cnthctl_el2, x0
   80020:	d51ce07f 	msr	cntvoff_el2, xzr
   80024:	d5380000 	mrs	x0, midr_el1
   80028:	d53800a1 	mrs	x1, mpidr_el1
   8002c:	d51c0000 	msr	vpidr_el2, x0
   80030:	d51c00a1 	msr	vmpidr_el2, x1
   80034:	d2867fe0 	mov	x0, #0x33ff                	// #13311
   80038:	d51c1140 	msr	cptr_el2, x0
   8003c:	d51c117f 	msr	hstr_el2, xzr
   80040:	d2a00600 	mov	x0, #0x300000              	// #3145728
   80044:	d5181040 	msr	cpacr_el1, x0
   80048:	d2b00000 	mov	x0, #0x80000000            	// #2147483648
   8004c:	d51c1100 	msr	hcr_el2, x0
   80050:	d2810000 	mov	x0, #0x800                 	// #2048
   80054:	f2a61a00 	movk	x0, #0x30d0, lsl #16
   80058:	d5181000 	msr	sctlr_el1, x0
   8005c:	d2807880 	mov	x0, #0x3c4                 	// #964
   80060:	d51c4000 	msr	spsr_el2, x0
   80064:	10000060 	adr	x0, 80070 <_start+0x70>
   80068:	d51c4020 	msr	elr_el2, x0
   8006c:	d69f03e0 	eret
   80070:	58000100 	ldr	x0, 80090 <_start+0x90>
   80074:	9100001f 	mov	sp, x0
   80078:	58000100 	ldr	x0, 80098 <_start+0x98>
   8007c:	d518c000 	msr	vbar_el1, x0
   80080:	14005a3c 	b	96970 <sysinit>
   80084:	00000000 	.inst	0x00000000 ; undefined
   80088:	002a8000 	.word	0x002a8000
   8008c:	00000000 	.word	0x00000000
   80090:	002a0000 	.word	0x002a0000
   80094:	00000000 	.word	0x00000000
   80098:	00092800 	.word	0x00092800
   8009c:	00000000 	.word	0x00000000

00000000000800a0 <main>:
   800a0:	d12b83ff 	sub	sp, sp, #0xae0
   800a4:	910063e0 	add	x0, sp, #0x18
   800a8:	a9007bfd 	stp	x29, x30, [sp]
   800ac:	910003fd 	mov	x29, sp
   800b0:	94000014 	bl	80100 <_ZN7CKernelC1Ev>
   800b4:	910063e0 	add	x0, sp, #0x18
   800b8:	94000066 	bl	80250 <_ZN7CKernel10InitializeEv>
   800bc:	35000060 	cbnz	w0, 800c8 <main+0x28>
   800c0:	d50342df 	msr	daifset, #0x2
   800c4:	14000000 	b	800c4 <main+0x24>
   800c8:	910063e0 	add	x0, sp, #0x18
   800cc:	9400008d 	bl	80300 <_ZN7CKernel3RunEv>
   800d0:	7100081f 	cmp	w0, #0x2
   800d4:	54000060 	b.eq	800e0 <main+0x40>  // b.none
   800d8:	d50342df 	msr	daifset, #0x2
   800dc:	14000000 	b	800dc <main+0x3c>
   800e0:	94005a18 	bl	96940 <reboot>
   800e4:	910063e0 	add	x0, sp, #0x18
   800e8:	9400003e 	bl	801e0 <_ZN7CKernelD1Ev>
   800ec:	52800020 	mov	w0, #0x1                   	// #1
   800f0:	a9407bfd 	ldp	x29, x30, [sp]
   800f4:	912b83ff 	add	sp, sp, #0xae0
   800f8:	d65f03c0 	ret
   800fc:	00000000 	.inst	0x00000000 ; undefined

0000000000080100 <_ZN7CKernelC1Ev>:
   80100:	a9bb7bfd 	stp	x29, x30, [sp, #-80]!
   80104:	52800021 	mov	w1, #0x1                   	// #1
   80108:	910003fd 	mov	x29, sp
   8010c:	a90153f3 	stp	x19, x20, [sp, #16]
   80110:	aa0003f3 	mov	x19, x0
   80114:	9100c014 	add	x20, x0, #0x30
   80118:	a9025bf5 	stp	x21, x22, [sp, #32]
   8011c:	91298016 	add	x22, x0, #0xa60
   80120:	91006015 	add	x21, x0, #0x18
   80124:	f9001bf7 	str	x23, [sp, #48]
   80128:	94004fbe 	bl	94020 <_ZN13CMemorySystemC1Ei>
   8012c:	aa1503e0 	mov	x0, x21
   80130:	94004650 	bl	91a70 <_ZN7CActLEDC1Ev>
   80134:	aa1403e0 	mov	x0, x20
   80138:	94004e02 	bl	93940 <_ZN14CKernelOptionsC1Ev>
   8013c:	9111c260 	add	x0, x19, #0x470
   80140:	940048a8 	bl	923e0 <_ZN18CDeviceNameServiceC1Ev>
   80144:	aa1403e0 	mov	x0, x20
   80148:	94004dc6 	bl	93860 <_ZNK14CKernelOptions8GetWidthEv>
   8014c:	2a0003e1 	mov	w1, w0
   80150:	aa1403e0 	mov	x0, x20
   80154:	b9004fe1 	str	w1, [sp, #76]
   80158:	91178277 	add	x23, x19, #0x5e0
   8015c:	94004dc5 	bl	93870 <_ZNK14CKernelOptions9GetHeightEv>
   80160:	2a0003e2 	mov	w2, w0
   80164:	b9404fe1 	ldr	w1, [sp, #76]
   80168:	52800003 	mov	w3, #0x0                   	// #0
   8016c:	91120260 	add	x0, x19, #0x480
   80170:	94005098 	bl	943d0 <_ZN13CScreenDeviceC1Ejji>
   80174:	9113a260 	add	x0, x19, #0x4e8
   80178:	940054d2 	bl	954c0 <_ZN13CSerialDeviceC1Ev>
   8017c:	91176260 	add	x0, x19, #0x5d8
   80180:	94004bd0 	bl	930c0 <_ZN17CExceptionHandlerC1Ev>
   80184:	aa1703e0 	mov	x0, x23
   80188:	94004c5a 	bl	932f0 <_ZN16CInterruptSystemC1Ev>
   8018c:	aa1703e1 	mov	x1, x23
   80190:	aa1603e0 	mov	x0, x22
   80194:	94005a1b 	bl	96a00 <_ZN6CTimerC1EP16CInterruptSystem>
   80198:	aa1403e0 	mov	x0, x20
   8019c:	94004dbd 	bl	93890 <_ZNK14CKernelOptions11GetLogLevelEv>
   801a0:	2a0003e1 	mov	w1, w0
   801a4:	aa1603e2 	mov	x2, x22
   801a8:	912a4260 	add	x0, x19, #0xa90
   801ac:	94004e8d 	bl	93be0 <_ZN7CLoggerC1EjP6CTimer>
   801b0:	b90ac27f 	str	wzr, [x19, #2752]
   801b4:	d00000e1 	adrp	x1, 9e000 <_ZZN8CGPIOPin20SetAlternateFunctionEjE11FunctionMap+0x420>
   801b8:	aa1503e0 	mov	x0, x21
   801bc:	a9425bf5 	ldp	x21, x22, [sp, #32]
   801c0:	f900b833 	str	x19, [x1, #368]
   801c4:	a94153f3 	ldp	x19, x20, [sp, #16]
   801c8:	52803e83 	mov	w3, #0x1f4                 	// #500
   801cc:	f9401bf7 	ldr	x23, [sp, #48]
   801d0:	52801902 	mov	w2, #0xc8                  	// #200
   801d4:	a8c57bfd 	ldp	x29, x30, [sp], #80
   801d8:	528000a1 	mov	w1, #0x5                   	// #5
   801dc:	1400463d 	b	91ad0 <_ZN7CActLED5BlinkEjjj>

00000000000801e0 <_ZN7CKernelD1Ev>:
   801e0:	a9be7bfd 	stp	x29, x30, [sp, #-32]!
   801e4:	d00000e1 	adrp	x1, 9e000 <_ZZN8CGPIOPin20SetAlternateFunctionEjE11FunctionMap+0x420>
   801e8:	910003fd 	mov	x29, sp
   801ec:	f900b83f 	str	xzr, [x1, #368]
   801f0:	f9000bf3 	str	x19, [sp, #16]
   801f4:	aa0003f3 	mov	x19, x0
   801f8:	912a4000 	add	x0, x0, #0xa90
   801fc:	94004e8d 	bl	93c30 <_ZN7CLoggerD1Ev>
   80200:	91298260 	add	x0, x19, #0xa60
   80204:	94005a1f 	bl	96a80 <_ZN6CTimerD1Ev>
   80208:	91178260 	add	x0, x19, #0x5e0
   8020c:	94004c45 	bl	93320 <_ZN16CInterruptSystemD1Ev>
   80210:	91176260 	add	x0, x19, #0x5d8
   80214:	94004bbf 	bl	93110 <_ZN17CExceptionHandlerD1Ev>
   80218:	9113a260 	add	x0, x19, #0x4e8
   8021c:	94005549 	bl	95740 <_ZN13CSerialDeviceD1Ev>
   80220:	91120260 	add	x0, x19, #0x480
   80224:	9400500b 	bl	94250 <_ZN13CScreenDeviceD1Ev>
   80228:	9111c260 	add	x0, x19, #0x470
   8022c:	94004881 	bl	92430 <_ZN18CDeviceNameServiceD1Ev>
   80230:	9100c260 	add	x0, x19, #0x30
   80234:	94004d87 	bl	93850 <_ZN14CKernelOptionsD1Ev>
   80238:	91006260 	add	x0, x19, #0x18
   8023c:	94004649 	bl	91b60 <_ZN7CActLEDD1Ev>
   80240:	aa1303e0 	mov	x0, x19
   80244:	f9400bf3 	ldr	x19, [sp, #16]
   80248:	a8c27bfd 	ldp	x29, x30, [sp], #32
   8024c:	14004fb1 	b	94110 <_ZN13CMemorySystemD1Ev>

0000000000080250 <_ZN7CKernel10InitializeEv>:
   80250:	a9be7bfd 	stp	x29, x30, [sp, #-32]!
   80254:	910003fd 	mov	x29, sp
   80258:	a90153f3 	stp	x19, x20, [sp, #16]
   8025c:	91120014 	add	x20, x0, #0x480
   80260:	aa0003f3 	mov	x19, x0
   80264:	aa1403e0 	mov	x0, x20
   80268:	940053be 	bl	95160 <_ZN13CScreenDevice10InitializeEv>
   8026c:	350000a0 	cbnz	w0, 80280 <_ZN7CKernel10InitializeEv+0x30>
   80270:	52800000 	mov	w0, #0x0                   	// #0
   80274:	a94153f3 	ldp	x19, x20, [sp, #16]
   80278:	a8c27bfd 	ldp	x29, x30, [sp], #32
   8027c:	d65f03c0 	ret
   80280:	52984001 	mov	w1, #0xc200                	// #49664
   80284:	72a00021 	movk	w1, #0x1, lsl #16
   80288:	9113a260 	add	x0, x19, #0x4e8
   8028c:	940054b1 	bl	95550 <_ZN13CSerialDevice10InitializeEj>
   80290:	34ffff00 	cbz	w0, 80270 <_ZN7CKernel10InitializeEv+0x20>
   80294:	9100c260 	add	x0, x19, #0x30
   80298:	94004d7a 	bl	93880 <_ZNK14CKernelOptions12GetLogDeviceEv>
   8029c:	aa0003e1 	mov	x1, x0
   802a0:	52800002 	mov	w2, #0x0                   	// #0
   802a4:	9111c260 	add	x0, x19, #0x470
   802a8:	940048c2 	bl	925b0 <_ZN18CDeviceNameService9GetDeviceEPKci>
   802ac:	aa0003e1 	mov	x1, x0
   802b0:	912a4260 	add	x0, x19, #0xa90
   802b4:	f100003f 	cmp	x1, #0x0
   802b8:	9a941021 	csel	x1, x1, x20, ne  // ne = any
   802bc:	94004f4d 	bl	93ff0 <_ZN7CLogger10InitializeEP7CDevice>
   802c0:	34fffd80 	cbz	w0, 80270 <_ZN7CKernel10InitializeEv+0x20>
   802c4:	91178260 	add	x0, x19, #0x5e0
   802c8:	94004c1a 	bl	93330 <_ZN16CInterruptSystem10InitializeEv>
   802cc:	34fffd20 	cbz	w0, 80270 <_ZN7CKernel10InitializeEv+0x20>
   802d0:	91298260 	add	x0, x19, #0xa60
   802d4:	94005c73 	bl	974a0 <_ZN6CTimer10InitializeEv>
   802d8:	34fffcc0 	cbz	w0, 80270 <_ZN7CKernel10InitializeEv+0x20>
   802dc:	94000161 	bl	80860 <USPiInitialize>
   802e0:	7100001f 	cmp	w0, #0x0
   802e4:	1a9fd7e0 	cset	w0, gt
   802e8:	a94153f3 	ldp	x19, x20, [sp, #16]
   802ec:	a8c27bfd 	ldp	x29, x30, [sp], #32
   802f0:	d65f03c0 	ret
   802f4:	d503201f 	nop
   802f8:	d503201f 	nop
   802fc:	d503201f 	nop

0000000000080300 <_ZN7CKernel3RunEv>:
   80300:	a9bc7bfd 	stp	x29, x30, [sp, #-64]!
   80304:	b00000c3 	adrp	x3, 99000 <_ZN8CGPIOPin7SetModeE9TGPIOModei+0x50>
   80308:	91372063 	add	x3, x3, #0xdc8
   8030c:	910003fd 	mov	x29, sp
   80310:	a9025bf5 	stp	x21, x22, [sp, #32]
   80314:	b00000d6 	adrp	x22, 99000 <_ZN8CGPIOPin7SetModeE9TGPIOModei+0x50>
   80318:	913702d6 	add	x22, x22, #0xdc0
   8031c:	f9001bf7 	str	x23, [sp, #48]
   80320:	912a4017 	add	x23, x0, #0xa90
   80324:	aa1603e1 	mov	x1, x22
   80328:	a90153f3 	stp	x19, x20, [sp, #16]
   8032c:	aa0003f4 	mov	x20, x0
   80330:	aa1703e0 	mov	x0, x23
   80334:	52800062 	mov	w2, #0x3                   	// #3
   80338:	94004f12 	bl	93f80 <_ZN7CLogger5WriteEPKc12TLogSeverityS1_z>
   8033c:	940001ed 	bl	80af0 <USPiKeyboardAvailable>
   80340:	340003e0 	cbz	w0, 803bc <_ZN7CKernel3RunEv+0xbc>
   80344:	90000000 	adrp	x0, 80000 <_start>
   80348:	91118000 	add	x0, x0, #0x460
   8034c:	94000229 	bl	80bf0 <USPiKeyboardRegisterShutdownHandler>
   80350:	91120295 	add	x21, x20, #0x480
   80354:	90000000 	adrp	x0, 80000 <_start>
   80358:	910fc000 	add	x0, x0, #0x3f0
   8035c:	94000201 	bl	80b60 <USPiKeyboardRegisterKeyPressedHandler>
   80360:	52800013 	mov	w19, #0x0                   	// #0
   80364:	aa1703e0 	mov	x0, x23
   80368:	aa1603e1 	mov	x1, x22
   8036c:	b00000c3 	adrp	x3, 99000 <_ZN8CGPIOPin7SetModeE9TGPIOModei+0x50>
   80370:	91382063 	add	x3, x3, #0xe08
   80374:	52800062 	mov	w2, #0x3                   	// #3
   80378:	94004f02 	bl	93f80 <_ZN7CLogger5WriteEPKc12TLogSeverityS1_z>
   8037c:	b94ac280 	ldr	w0, [x20, #2752]
   80380:	35000120 	cbnz	w0, 803a4 <_ZN7CKernel3RunEv+0xa4>
   80384:	d503201f 	nop
   80388:	2a1303e2 	mov	w2, w19
   8038c:	aa1503e0 	mov	x0, x21
   80390:	52800001 	mov	w1, #0x0                   	// #0
   80394:	940053f3 	bl	95360 <_ZN13CScreenDevice5RotorEjj>
   80398:	b94ac280 	ldr	w0, [x20, #2752]
   8039c:	11000673 	add	w19, w19, #0x1
   803a0:	34ffff40 	cbz	w0, 80388 <_ZN7CKernel3RunEv+0x88>
   803a4:	b94ac280 	ldr	w0, [x20, #2752]
   803a8:	a94153f3 	ldp	x19, x20, [sp, #16]
   803ac:	a9425bf5 	ldp	x21, x22, [sp, #32]
   803b0:	f9401bf7 	ldr	x23, [sp, #48]
   803b4:	a8c47bfd 	ldp	x29, x30, [sp], #64
   803b8:	d65f03c0 	ret
   803bc:	aa1603e1 	mov	x1, x22
   803c0:	aa1703e0 	mov	x0, x23
   803c4:	52800022 	mov	w2, #0x1                   	// #1
   803c8:	b00000c3 	adrp	x3, 99000 <_ZN8CGPIOPin7SetModeE9TGPIOModei+0x50>
   803cc:	9137c063 	add	x3, x3, #0xdf0
   803d0:	94004eec 	bl	93f80 <_ZN7CLogger5WriteEPKc12TLogSeverityS1_z>
   803d4:	52800020 	mov	w0, #0x1                   	// #1
   803d8:	a94153f3 	ldp	x19, x20, [sp, #16]
   803dc:	a9425bf5 	ldp	x21, x22, [sp, #32]
   803e0:	f9401bf7 	ldr	x23, [sp, #48]
   803e4:	a8c47bfd 	ldp	x29, x30, [sp], #64
   803e8:	d65f03c0 	ret
   803ec:	d503201f 	nop

00000000000803f0 <_ZN7CKernel17KeyPressedHandlerEPKc>:
   803f0:	a9bd7bfd 	stp	x29, x30, [sp, #-48]!
   803f4:	910003fd 	mov	x29, sp
   803f8:	a90153f3 	stp	x19, x20, [sp, #16]
   803fc:	aa0003f4 	mov	x20, x0
   80400:	f90013f5 	str	x21, [sp, #32]
   80404:	d00000f5 	adrp	x21, 9e000 <_ZZN8CGPIOPin20SetAlternateFunctionEjE11FunctionMap+0x420>
   80408:	f940bab3 	ldr	x19, [x21, #368]
   8040c:	b4000153 	cbz	x19, 80434 <_ZN7CKernel17KeyPressedHandlerEPKc+0x44>
   80410:	aa1403e0 	mov	x0, x20
   80414:	94005ccf 	bl	97750 <strlen>
   80418:	aa1403e1 	mov	x1, x20
   8041c:	2a0003e2 	mov	w2, w0
   80420:	91120260 	add	x0, x19, #0x480
   80424:	a94153f3 	ldp	x19, x20, [sp, #16]
   80428:	f94013f5 	ldr	x21, [sp, #32]
   8042c:	a8c37bfd 	ldp	x29, x30, [sp], #48
   80430:	14005314 	b	95080 <_ZN13CScreenDevice5WriteEPKvj>
   80434:	b00000c1 	adrp	x1, 99000 <_ZN8CGPIOPin7SetModeE9TGPIOModei+0x50>
   80438:	b00000c0 	adrp	x0, 99000 <_ZN8CGPIOPin7SetModeE9TGPIOModei+0x50>
   8043c:	91388021 	add	x1, x1, #0xe20
   80440:	9138c000 	add	x0, x0, #0xe30
   80444:	52800f62 	mov	w2, #0x7b                  	// #123
   80448:	940046ea 	bl	91ff0 <assertion_failed>
   8044c:	f940bab3 	ldr	x19, [x21, #368]
   80450:	17fffff0 	b	80410 <_ZN7CKernel17KeyPressedHandlerEPKc+0x20>
   80454:	d503201f 	nop
   80458:	d503201f 	nop
   8045c:	d503201f 	nop

0000000000080460 <_ZN7CKernel15ShutdownHandlerEv>:
   80460:	a9be7bfd 	stp	x29, x30, [sp, #-32]!
   80464:	910003fd 	mov	x29, sp
   80468:	f9000bf3 	str	x19, [sp, #16]
   8046c:	d00000f3 	adrp	x19, 9e000 <_ZZN8CGPIOPin20SetAlternateFunctionEjE11FunctionMap+0x420>
   80470:	f940ba60 	ldr	x0, [x19, #368]
   80474:	b40000c0 	cbz	x0, 8048c <_ZN7CKernel15ShutdownHandlerEv+0x2c>
   80478:	52800041 	mov	w1, #0x2                   	// #2
   8047c:	b90ac001 	str	w1, [x0, #2752]
   80480:	f9400bf3 	ldr	x19, [sp, #16]
   80484:	a8c27bfd 	ldp	x29, x30, [sp], #32
   80488:	d65f03c0 	ret
   8048c:	52801022 	mov	w2, #0x81                  	// #129
   80490:	b00000c1 	adrp	x1, 99000 <_ZN8CGPIOPin7SetModeE9TGPIOModei+0x50>
   80494:	b00000c0 	adrp	x0, 99000 <_ZN8CGPIOPin7SetModeE9TGPIOModei+0x50>
   80498:	91388021 	add	x1, x1, #0xe20
   8049c:	9138c000 	add	x0, x0, #0xe30
   804a0:	940046d4 	bl	91ff0 <assertion_failed>
   804a4:	f940ba60 	ldr	x0, [x19, #368]
   804a8:	52800041 	mov	w1, #0x2                   	// #2
   804ac:	b90ac001 	str	w1, [x0, #2752]
   804b0:	f9400bf3 	ldr	x19, [sp, #16]
   804b4:	a8c27bfd 	ldp	x29, x30, [sp], #32
   804b8:	d65f03c0 	ret
   804bc:	d503201f 	nop

00000000000804c0 <_ZN7CKernel19KeyStatusHandlerRawEhPKh>:
   804c0:	a9b97bfd 	stp	x29, x30, [sp, #-112]!
   804c4:	910003fd 	mov	x29, sp
   804c8:	a9025bf5 	stp	x21, x22, [sp, #32]
   804cc:	d00000f6 	adrp	x22, 9e000 <_ZZN8CGPIOPin20SetAlternateFunctionEjE11FunctionMap+0x420>
   804d0:	f940bac2 	ldr	x2, [x22, #368]
   804d4:	a90153f3 	stp	x19, x20, [sp, #16]
   804d8:	12001c14 	and	w20, w0, #0xff
   804dc:	aa0103f3 	mov	x19, x1
   804e0:	b4000622 	cbz	x2, 805a4 <_ZN7CKernel19KeyStatusHandlerRawEhPKh+0xe4>
   804e4:	9100c3e0 	add	x0, sp, #0x30
   804e8:	940054f6 	bl	958c0 <_ZN7CStringC1Ev>
   804ec:	2a1403e2 	mov	w2, w20
   804f0:	9100c3e0 	add	x0, sp, #0x30
   804f4:	b00000c1 	adrp	x1, 99000 <_ZN8CGPIOPin7SetModeE9TGPIOModei+0x50>
   804f8:	b00000d5 	adrp	x21, 99000 <_ZN8CGPIOPin7SetModeE9TGPIOModei+0x50>
   804fc:	913982b5 	add	x21, x21, #0xe60
   80500:	91390021 	add	x1, x1, #0xe40
   80504:	91001a74 	add	x20, x19, #0x6
   80508:	940057b6 	bl	963e0 <_ZN7CString6FormatEPKcz>
   8050c:	14000004 	b	8051c <_ZN7CKernel19KeyStatusHandlerRawEhPKh+0x5c>
   80510:	91000673 	add	x19, x19, #0x1
   80514:	eb14027f 	cmp	x19, x20
   80518:	54000260 	b.eq	80564 <_ZN7CKernel19KeyStatusHandlerRawEhPKh+0xa4>  // b.none
   8051c:	39400260 	ldrb	w0, [x19]
   80520:	34ffff80 	cbz	w0, 80510 <_ZN7CKernel19KeyStatusHandlerRawEhPKh+0x50>
   80524:	910143e0 	add	x0, sp, #0x50
   80528:	940054e6 	bl	958c0 <_ZN7CStringC1Ev>
   8052c:	39400262 	ldrb	w2, [x19]
   80530:	aa1503e1 	mov	x1, x21
   80534:	910143e0 	add	x0, sp, #0x50
   80538:	91000673 	add	x19, x19, #0x1
   8053c:	940057a9 	bl	963e0 <_ZN7CString6FormatEPKcz>
   80540:	910143e0 	add	x0, sp, #0x50
   80544:	940054fb 	bl	95930 <_ZNK7CStringcvPKcEv>
   80548:	aa0003e1 	mov	x1, x0
   8054c:	9100c3e0 	add	x0, sp, #0x30
   80550:	94005520 	bl	959d0 <_ZN7CString6AppendEPKc>
   80554:	910143e0 	add	x0, sp, #0x50
   80558:	9400549e 	bl	957d0 <_ZN7CStringD1Ev>
   8055c:	eb14027f 	cmp	x19, x20
   80560:	54fffde1 	b.ne	8051c <_ZN7CKernel19KeyStatusHandlerRawEhPKh+0x5c>  // b.any
   80564:	f940bad3 	ldr	x19, [x22, #368]
   80568:	9100c3e0 	add	x0, sp, #0x30
   8056c:	940054f1 	bl	95930 <_ZNK7CStringcvPKcEv>
   80570:	aa0003e3 	mov	x3, x0
   80574:	b00000c1 	adrp	x1, 99000 <_ZN8CGPIOPin7SetModeE9TGPIOModei+0x50>
   80578:	91370021 	add	x1, x1, #0xdc0
   8057c:	52800062 	mov	w2, #0x3                   	// #3
   80580:	912a4273 	add	x19, x19, #0xa90
   80584:	aa1303e0 	mov	x0, x19
   80588:	94004e7e 	bl	93f80 <_ZN7CLogger5WriteEPKc12TLogSeverityS1_z>
   8058c:	9100c3e0 	add	x0, sp, #0x30
   80590:	94005490 	bl	957d0 <_ZN7CStringD1Ev>
   80594:	a94153f3 	ldp	x19, x20, [sp, #16]
   80598:	a9425bf5 	ldp	x21, x22, [sp, #32]
   8059c:	a8c77bfd 	ldp	x29, x30, [sp], #112
   805a0:	d65f03c0 	ret
   805a4:	b00000c1 	adrp	x1, 99000 <_ZN8CGPIOPin7SetModeE9TGPIOModei+0x50>
   805a8:	b00000c0 	adrp	x0, 99000 <_ZN8CGPIOPin7SetModeE9TGPIOModei+0x50>
   805ac:	91388021 	add	x1, x1, #0xe20
   805b0:	9138c000 	add	x0, x0, #0xe30
   805b4:	528010e2 	mov	w2, #0x87                  	// #135
   805b8:	9400468e 	bl	91ff0 <assertion_failed>
   805bc:	17ffffca 	b	804e4 <_ZN7CKernel19KeyStatusHandlerRawEhPKh+0x24>

00000000000805c0 <MsDelay>:
   805c0:	a9be7bfd 	stp	x29, x30, [sp, #-32]!
   805c4:	910003fd 	mov	x29, sp
   805c8:	b9001fe0 	str	w0, [sp, #28]
   805cc:	94005c25 	bl	97660 <_ZN6CTimer3GetEv>
   805d0:	b9401fe1 	ldr	w1, [sp, #28]
   805d4:	a8c27bfd 	ldp	x29, x30, [sp], #32
   805d8:	14005b76 	b	973b0 <_ZN6CTimer7MsDelayEj>
   805dc:	d503201f 	nop

00000000000805e0 <usDelay>:
   805e0:	a9be7bfd 	stp	x29, x30, [sp, #-32]!
   805e4:	910003fd 	mov	x29, sp
   805e8:	b9001fe0 	str	w0, [sp, #28]
   805ec:	94005c1d 	bl	97660 <_ZN6CTimer3GetEv>
   805f0:	b9401fe1 	ldr	w1, [sp, #28]
   805f4:	a8c27bfd 	ldp	x29, x30, [sp], #32
   805f8:	14005b76 	b	973d0 <_ZN6CTimer7usDelayEj>
   805fc:	d503201f 	nop

0000000000080600 <StartKernelTimer>:
   80600:	a9bc7bfd 	stp	x29, x30, [sp, #-64]!
   80604:	910003fd 	mov	x29, sp
   80608:	f9000bf3 	str	x19, [sp, #16]
   8060c:	2a0003f3 	mov	w19, w0
   80610:	a9028be3 	stp	x3, x2, [sp, #40]
   80614:	f9001fe1 	str	x1, [sp, #56]
   80618:	94005c12 	bl	97660 <_ZN6CTimer3GetEv>
   8061c:	a9428be3 	ldp	x3, x2, [sp, #40]
   80620:	f9401fe1 	ldr	x1, [sp, #56]
   80624:	aa0303e4 	mov	x4, x3
   80628:	aa0203e3 	mov	x3, x2
   8062c:	aa0103e2 	mov	x2, x1
   80630:	2a1303e1 	mov	w1, w19
   80634:	940059ff 	bl	96e30 <_ZN6CTimer16StartKernelTimerEjPFvmPvS0_ES0_S0_>
   80638:	f9400bf3 	ldr	x19, [sp, #16]
   8063c:	a8c47bfd 	ldp	x29, x30, [sp], #64
   80640:	d65f03c0 	ret
   80644:	d503201f 	nop
   80648:	d503201f 	nop
   8064c:	d503201f 	nop

0000000000080650 <CancelKernelTimer>:
   80650:	a9be7bfd 	stp	x29, x30, [sp, #-32]!
   80654:	910003fd 	mov	x29, sp
   80658:	f9000bf3 	str	x19, [sp, #16]
   8065c:	2a0003f3 	mov	w19, w0
   80660:	94005c00 	bl	97660 <_ZN6CTimer3GetEv>
   80664:	2a1303e1 	mov	w1, w19
   80668:	f9400bf3 	ldr	x19, [sp, #16]
   8066c:	a8c27bfd 	ldp	x29, x30, [sp], #32
   80670:	14005a58 	b	96fd0 <_ZN6CTimer17CancelKernelTimerEm>
   80674:	d503201f 	nop
   80678:	d503201f 	nop
   8067c:	d503201f 	nop

0000000000080680 <ConnectInterrupt>:
   80680:	a9bd7bfd 	stp	x29, x30, [sp, #-48]!
   80684:	910003fd 	mov	x29, sp
   80688:	f9000bf3 	str	x19, [sp, #16]
   8068c:	2a0003f3 	mov	w19, w0
   80690:	a90207e2 	stp	x2, x1, [sp, #32]
   80694:	94004beb 	bl	93640 <_ZN16CInterruptSystem3GetEv>
   80698:	a94207e2 	ldp	x2, x1, [sp, #32]
   8069c:	aa0203e3 	mov	x3, x2
   806a0:	aa0103e2 	mov	x2, x1
   806a4:	2a1303e1 	mov	w1, w19
   806a8:	f9400bf3 	ldr	x19, [sp, #16]
   806ac:	a8c37bfd 	ldp	x29, x30, [sp], #48
   806b0:	14004b60 	b	93430 <_ZN16CInterruptSystem10ConnectIRQEjPFvPvES0_>
   806b4:	d503201f 	nop
   806b8:	d503201f 	nop
   806bc:	d503201f 	nop

00000000000806c0 <SetPowerStateOn>:
   806c0:	a9bc7bfd 	stp	x29, x30, [sp, #-64]!
   806c4:	910003fd 	mov	x29, sp
   806c8:	f9000bf3 	str	x19, [sp, #16]
   806cc:	2a0003f3 	mov	w19, w0
   806d0:	910083e0 	add	x0, sp, #0x20
   806d4:	9400466f 	bl	92090 <_ZN16CBcmPropertyTagsC1Ev>
   806d8:	52800065 	mov	w5, #0x3                   	// #3
   806dc:	910083e0 	add	x0, sp, #0x20
   806e0:	52900021 	mov	w1, #0x8001                	// #32769
   806e4:	72a00041 	movk	w1, #0x2, lsl #16
   806e8:	52800004 	mov	w4, #0x0                   	// #0
   806ec:	52800283 	mov	w3, #0x14                  	// #20
   806f0:	9100a3e2 	add	x2, sp, #0x28
   806f4:	290697f3 	stp	w19, w5, [sp, #52]
   806f8:	9400466e 	bl	920b0 <_ZN16CBcmPropertyTags6GetTagEjPvjj>
   806fc:	2a0003f3 	mov	w19, w0
   80700:	340000a0 	cbz	w0, 80714 <SetPowerStateOn+0x54>
   80704:	b9403be0 	ldr	w0, [sp, #56]
   80708:	12000013 	and	w19, w0, #0x1
   8070c:	f27f001f 	tst	x0, #0x2
   80710:	1a9f0273 	csel	w19, w19, wzr, eq  // eq = none
   80714:	910083e0 	add	x0, sp, #0x20
   80718:	94004662 	bl	920a0 <_ZN16CBcmPropertyTagsD1Ev>
   8071c:	2a1303e0 	mov	w0, w19
   80720:	f9400bf3 	ldr	x19, [sp, #16]
   80724:	a8c47bfd 	ldp	x29, x30, [sp], #64
   80728:	d65f03c0 	ret
   8072c:	d503201f 	nop

0000000000080730 <GetMACAddress>:
   80730:	a9bc7bfd 	stp	x29, x30, [sp, #-64]!
   80734:	910003fd 	mov	x29, sp
   80738:	a90153f3 	stp	x19, x20, [sp, #16]
   8073c:	aa0003f4 	mov	x20, x0
   80740:	910083e0 	add	x0, sp, #0x20
   80744:	94004653 	bl	92090 <_ZN16CBcmPropertyTagsC1Ev>
   80748:	910083e0 	add	x0, sp, #0x20
   8074c:	9100a3e2 	add	x2, sp, #0x28
   80750:	52800061 	mov	w1, #0x3                   	// #3
   80754:	72a00021 	movk	w1, #0x1, lsl #16
   80758:	52800004 	mov	w4, #0x0                   	// #0
   8075c:	52800283 	mov	w3, #0x14                  	// #20
   80760:	94004654 	bl	920b0 <_ZN16CBcmPropertyTags6GetTagEjPvjj>
   80764:	2a0003f3 	mov	w19, w0
   80768:	340000c0 	cbz	w0, 80780 <GetMACAddress+0x50>
   8076c:	52800033 	mov	w19, #0x1                   	// #1
   80770:	9100d3e1 	add	x1, sp, #0x34
   80774:	aa1403e0 	mov	x0, x20
   80778:	d28000c2 	mov	x2, #0x6                   	// #6
   8077c:	94005bd5 	bl	976d0 <memcpy>
   80780:	910083e0 	add	x0, sp, #0x20
   80784:	94004647 	bl	920a0 <_ZN16CBcmPropertyTagsD1Ev>
   80788:	2a1303e0 	mov	w0, w19
   8078c:	a94153f3 	ldp	x19, x20, [sp, #16]
   80790:	a8c47bfd 	ldp	x29, x30, [sp], #64
   80794:	d65f03c0 	ret
   80798:	d503201f 	nop
   8079c:	d503201f 	nop

00000000000807a0 <LogWrite>:
   807a0:	a9ae7bfd 	stp	x29, x30, [sp, #-288]!
   807a4:	128004e8 	mov	w8, #0xffffffd8            	// #-40
   807a8:	910003fd 	mov	x29, sp
   807ac:	9103c3e9 	add	x9, sp, #0xf0
   807b0:	b9002fe1 	str	w1, [sp, #44]
   807b4:	910483e1 	add	x1, sp, #0x120
   807b8:	f9000bf3 	str	x19, [sp, #16]
   807bc:	aa0003f3 	mov	x19, x0
   807c0:	12800fe0 	mov	w0, #0xffffff80            	// #-128
   807c4:	f90013e2 	str	x2, [sp, #32]
   807c8:	a90507e1 	stp	x1, x1, [sp, #80]
   807cc:	f90033e9 	str	x9, [sp, #96]
   807d0:	b9006be8 	str	w8, [sp, #104]
   807d4:	b9006fe0 	str	w0, [sp, #108]
   807d8:	3d801fe0 	str	q0, [sp, #112]
   807dc:	3d8023e1 	str	q1, [sp, #128]
   807e0:	3d8027e2 	str	q2, [sp, #144]
   807e4:	3d802be3 	str	q3, [sp, #160]
   807e8:	3d802fe4 	str	q4, [sp, #176]
   807ec:	3d8033e5 	str	q5, [sp, #192]
   807f0:	3d8037e6 	str	q6, [sp, #208]
   807f4:	3d803be7 	str	q7, [sp, #224]
   807f8:	a90f93e3 	stp	x3, x4, [sp, #248]
   807fc:	a9109be5 	stp	x5, x6, [sp, #264]
   80800:	f9008fe7 	str	x7, [sp, #280]
   80804:	94004d13 	bl	93c50 <_ZN7CLogger3GetEv>
   80808:	a94527e8 	ldp	x8, x9, [sp, #80]
   8080c:	9100c3e4 	add	x4, sp, #0x30
   80810:	a9461fe6 	ldp	x6, x7, [sp, #96]
   80814:	a90327e8 	stp	x8, x9, [sp, #48]
   80818:	b9402fe1 	ldr	w1, [sp, #44]
   8081c:	f94013e2 	ldr	x2, [sp, #32]
   80820:	a9041fe6 	stp	x6, x7, [sp, #64]
   80824:	aa0203e3 	mov	x3, x2
   80828:	2a0103e2 	mov	w2, w1
   8082c:	aa1303e1 	mov	x1, x19
   80830:	94004d74 	bl	93e00 <_ZN7CLogger6WriteVEPKc12TLogSeverityS1_St9__va_list>
   80834:	f9400bf3 	ldr	x19, [sp, #16]
   80838:	a8d27bfd 	ldp	x29, x30, [sp], #288
   8083c:	d65f03c0 	ret

0000000000080840 <uspi_assertion_failed>:
   80840:	140045ec 	b	91ff0 <assertion_failed>
   80844:	d503201f 	nop
   80848:	d503201f 	nop
   8084c:	d503201f 	nop

0000000000080850 <DebugHexdump>:
   80850:	1400466c 	b	92200 <debug_hexdump>
	...

0000000000080860 <USPiInitialize>:
   80860:	a9b97bfd 	stp	x29, x30, [sp, #-112]!
   80864:	b00000c2 	adrp	x2, 99000 <_ZN8CGPIOPin7SetModeE9TGPIOModei+0x50>
   80868:	52800081 	mov	w1, #0x4                   	// #4
   8086c:	910003fd 	mov	x29, sp
   80870:	a90363f7 	stp	x23, x24, [sp, #48]
   80874:	b00000d7 	adrp	x23, 99000 <_ZN8CGPIOPin7SetModeE9TGPIOModei+0x50>
   80878:	9139a2f7 	add	x23, x23, #0xe68
   8087c:	aa1703e0 	mov	x0, x23
   80880:	9139c042 	add	x2, x2, #0xe70
   80884:	a90153f3 	stp	x19, x20, [sp, #16]
   80888:	97ffffc6 	bl	807a0 <LogWrite>
   8088c:	d00000f4 	adrp	x20, 9e000 <_ZZN8CGPIOPin20SetAlternateFunctionEjE11FunctionMap+0x420>
   80890:	f940be80 	ldr	x0, [x20, #376]
   80894:	b40000e0 	cbz	x0, 808b0 <USPiInitialize+0x50>
   80898:	b00000c1 	adrp	x1, 99000 <_ZN8CGPIOPin7SetModeE9TGPIOModei+0x50>
   8089c:	b00000c0 	adrp	x0, 99000 <_ZN8CGPIOPin7SetModeE9TGPIOModei+0x50>
   808a0:	913a4021 	add	x1, x1, #0xe90
   808a4:	913a8000 	add	x0, x0, #0xea0
   808a8:	52800482 	mov	w2, #0x24                  	// #36
   808ac:	97ffffe5 	bl	80840 <uspi_assertion_failed>
   808b0:	52817200 	mov	w0, #0xb90                 	// #2960
   808b4:	940044cb 	bl	91be0 <malloc>
   808b8:	f900be80 	str	x0, [x20, #376]
   808bc:	b4001080 	cbz	x0, 80acc <USPiInitialize+0x26c>
   808c0:	94002044 	bl	889d0 <DeviceNameService>
   808c4:	f940be80 	ldr	x0, [x20, #376]
   808c8:	91002000 	add	x0, x0, #0x8
   808cc:	9400042d 	bl	81980 <DWHCIDevice>
   808d0:	f940be81 	ldr	x1, [x20, #376]
   808d4:	91002020 	add	x0, x1, #0x8
   808d8:	f905ac3f 	str	xzr, [x1, #2904]
   808dc:	f905b03f 	str	xzr, [x1, #2912]
   808e0:	94000cf4 	bl	83cb0 <DWHCIDeviceInitialize>
   808e4:	34000d00 	cbz	w0, 80a84 <USPiInitialize+0x224>
   808e8:	a9025bf5 	stp	x21, x22, [sp, #32]
   808ec:	52800013 	mov	w19, #0x0                   	// #0
   808f0:	f90023f9 	str	x25, [sp, #64]
   808f4:	94002117 	bl	88d50 <DeviceNameServiceGet>
   808f8:	f940be95 	ldr	x21, [x20, #376]
   808fc:	b00000c1 	adrp	x1, 99000 <_ZN8CGPIOPin7SetModeE9TGPIOModei+0x50>
   80900:	913bc021 	add	x1, x1, #0xef0
   80904:	52800002 	mov	w2, #0x0                   	// #0
   80908:	940020ca 	bl	88c30 <DeviceNameServiceGetDevice>
   8090c:	b00000d9 	adrp	x25, 99000 <_ZN8CGPIOPin7SetModeE9TGPIOModei+0x50>
   80910:	913c2339 	add	x25, x25, #0xf08
   80914:	f90596a0 	str	x0, [x21, #2856]
   80918:	9400210e 	bl	88d50 <DeviceNameServiceGet>
   8091c:	f940be95 	ldr	x21, [x20, #376]
   80920:	b00000c1 	adrp	x1, 99000 <_ZN8CGPIOPin7SetModeE9TGPIOModei+0x50>
   80924:	913be021 	add	x1, x1, #0xef8
   80928:	52800002 	mov	w2, #0x0                   	// #0
   8092c:	940020c1 	bl	88c30 <DeviceNameServiceGetDevice>
   80930:	f9059aa0 	str	x0, [x21, #2864]
   80934:	d00000f5 	adrp	x21, 9e000 <_ZZN8CGPIOPin20SetAlternateFunctionEjE11FunctionMap+0x420>
   80938:	9105e2b5 	add	x21, x21, #0x178
   8093c:	94002105 	bl	88d50 <DeviceNameServiceGet>
   80940:	f940be94 	ldr	x20, [x20, #376]
   80944:	b00000c1 	adrp	x1, 99000 <_ZN8CGPIOPin7SetModeE9TGPIOModei+0x50>
   80948:	52800002 	mov	w2, #0x0                   	// #0
   8094c:	913c0021 	add	x1, x1, #0xf00
   80950:	940020b8 	bl	88c30 <DeviceNameServiceGetDevice>
   80954:	f905c680 	str	x0, [x20, #2952]
   80958:	11000676 	add	w22, w19, #0x1
   8095c:	910163e0 	add	x0, sp, #0x58
   80960:	94002c48 	bl	8ba80 <String>
   80964:	2a1603e2 	mov	w2, w22
   80968:	aa1903e1 	mov	x1, x25
   8096c:	910163e0 	add	x0, sp, #0x58
   80970:	94002f7c 	bl	8c760 <StringFormat>
   80974:	940020f7 	bl	88d50 <DeviceNameServiceGet>
   80978:	aa0003f8 	mov	x24, x0
   8097c:	910163e0 	add	x0, sp, #0x58
   80980:	94002c84 	bl	8bb90 <StringGet>
   80984:	f94002b4 	ldr	x20, [x21]
   80988:	aa0003e1 	mov	x1, x0
   8098c:	52800022 	mov	w2, #0x1                   	// #1
   80990:	aa1803e0 	mov	x0, x24
   80994:	940020a7 	bl	88c30 <DeviceNameServiceGetDevice>
   80998:	8b334e94 	add	x20, x20, w19, uxtw #3
   8099c:	2a1603f3 	mov	w19, w22
   809a0:	f9059e80 	str	x0, [x20, #2872]
   809a4:	910163e0 	add	x0, sp, #0x58
   809a8:	94002c66 	bl	8bb40 <_String>
   809ac:	710012df 	cmp	w22, #0x4
   809b0:	54fffd41 	b.ne	80958 <USPiInitialize+0xf8>  // b.any
   809b4:	940020e7 	bl	88d50 <DeviceNameServiceGet>
   809b8:	b00000d9 	adrp	x25, 99000 <_ZN8CGPIOPin7SetModeE9TGPIOModei+0x50>
   809bc:	913c8339 	add	x25, x25, #0xf20
   809c0:	b00000c1 	adrp	x1, 99000 <_ZN8CGPIOPin7SetModeE9TGPIOModei+0x50>
   809c4:	913c4021 	add	x1, x1, #0xf10
   809c8:	52800002 	mov	w2, #0x0                   	// #0
   809cc:	f94002b4 	ldr	x20, [x21]
   809d0:	94002098 	bl	88c30 <DeviceNameServiceGetDevice>
   809d4:	52800013 	mov	w19, #0x0                   	// #0
   809d8:	f905ae80 	str	x0, [x20, #2904]
   809dc:	940020dd 	bl	88d50 <DeviceNameServiceGet>
   809e0:	f94002b4 	ldr	x20, [x21]
   809e4:	b00000c1 	adrp	x1, 99000 <_ZN8CGPIOPin7SetModeE9TGPIOModei+0x50>
   809e8:	913c6021 	add	x1, x1, #0xf18
   809ec:	52800002 	mov	w2, #0x0                   	// #0
   809f0:	94002090 	bl	88c30 <DeviceNameServiceGetDevice>
   809f4:	f905b280 	str	x0, [x20, #2912]
   809f8:	11000676 	add	w22, w19, #0x1
   809fc:	910163e0 	add	x0, sp, #0x58
   80a00:	94002c20 	bl	8ba80 <String>
   80a04:	2a1603e2 	mov	w2, w22
   80a08:	aa1903e1 	mov	x1, x25
   80a0c:	910163e0 	add	x0, sp, #0x58
   80a10:	94002f54 	bl	8c760 <StringFormat>
   80a14:	940020cf 	bl	88d50 <DeviceNameServiceGet>
   80a18:	aa0003f8 	mov	x24, x0
   80a1c:	910163e0 	add	x0, sp, #0x58
   80a20:	94002c5c 	bl	8bb90 <StringGet>
   80a24:	f94002b4 	ldr	x20, [x21]
   80a28:	aa0003e1 	mov	x1, x0
   80a2c:	52800002 	mov	w2, #0x0                   	// #0
   80a30:	aa1803e0 	mov	x0, x24
   80a34:	9400207f 	bl	88c30 <DeviceNameServiceGetDevice>
   80a38:	8b334e94 	add	x20, x20, w19, uxtw #3
   80a3c:	2a1603f3 	mov	w19, w22
   80a40:	f905b680 	str	x0, [x20, #2920]
   80a44:	910163e0 	add	x0, sp, #0x58
   80a48:	94002c3e 	bl	8bb40 <_String>
   80a4c:	710012df 	cmp	w22, #0x4
   80a50:	54fffd41 	b.ne	809f8 <USPiInitialize+0x198>  // b.any
   80a54:	2a1603e1 	mov	w1, w22
   80a58:	aa1703e0 	mov	x0, x23
   80a5c:	b00000c2 	adrp	x2, 99000 <_ZN8CGPIOPin7SetModeE9TGPIOModei+0x50>
   80a60:	913ca042 	add	x2, x2, #0xf28
   80a64:	97ffff4f 	bl	807a0 <LogWrite>
   80a68:	52800020 	mov	w0, #0x1                   	// #1
   80a6c:	a94153f3 	ldp	x19, x20, [sp, #16]
   80a70:	a9425bf5 	ldp	x21, x22, [sp, #32]
   80a74:	a94363f7 	ldp	x23, x24, [sp, #48]
   80a78:	f94023f9 	ldr	x25, [sp, #64]
   80a7c:	a8c77bfd 	ldp	x29, x30, [sp], #112
   80a80:	d65f03c0 	ret
   80a84:	52800021 	mov	w1, #0x1                   	// #1
   80a88:	aa1703e0 	mov	x0, x23
   80a8c:	b00000c2 	adrp	x2, 99000 <_ZN8CGPIOPin7SetModeE9TGPIOModei+0x50>
   80a90:	913b0042 	add	x2, x2, #0xec0
   80a94:	97ffff43 	bl	807a0 <LogWrite>
   80a98:	f940be80 	ldr	x0, [x20, #376]
   80a9c:	91002000 	add	x0, x0, #0x8
   80aa0:	940003d4 	bl	819f0 <_DWHCIDevice>
   80aa4:	f940be80 	ldr	x0, [x20, #376]
   80aa8:	94001fe6 	bl	88a40 <_DeviceNameService>
   80aac:	f940be80 	ldr	x0, [x20, #376]
   80ab0:	940044b0 	bl	91d70 <free>
   80ab4:	f900be9f 	str	xzr, [x20, #376]
   80ab8:	52800000 	mov	w0, #0x0                   	// #0
   80abc:	a94153f3 	ldp	x19, x20, [sp, #16]
   80ac0:	a94363f7 	ldp	x23, x24, [sp, #48]
   80ac4:	a8c77bfd 	ldp	x29, x30, [sp], #112
   80ac8:	d65f03c0 	ret
   80acc:	b00000c1 	adrp	x1, 99000 <_ZN8CGPIOPin7SetModeE9TGPIOModei+0x50>
   80ad0:	b00000c0 	adrp	x0, 99000 <_ZN8CGPIOPin7SetModeE9TGPIOModei+0x50>
   80ad4:	913a4021 	add	x1, x1, #0xe90
   80ad8:	913ac000 	add	x0, x0, #0xeb0
   80adc:	528004c2 	mov	w2, #0x26                  	// #38
   80ae0:	97ffff58 	bl	80840 <uspi_assertion_failed>
   80ae4:	f940be80 	ldr	x0, [x20, #376]
   80ae8:	17ffff76 	b	808c0 <USPiInitialize+0x60>
   80aec:	d503201f 	nop

0000000000080af0 <USPiKeyboardAvailable>:
   80af0:	a9be7bfd 	stp	x29, x30, [sp, #-32]!
   80af4:	910003fd 	mov	x29, sp
   80af8:	f9000bf3 	str	x19, [sp, #16]
   80afc:	d00000f3 	adrp	x19, 9e000 <_ZZN8CGPIOPin20SetAlternateFunctionEjE11FunctionMap+0x420>
   80b00:	f940be60 	ldr	x0, [x19, #376]
   80b04:	b40000e0 	cbz	x0, 80b20 <USPiKeyboardAvailable+0x30>
   80b08:	f9459400 	ldr	x0, [x0, #2856]
   80b0c:	f9400bf3 	ldr	x19, [sp, #16]
   80b10:	f100001f 	cmp	x0, #0x0
   80b14:	1a9f07e0 	cset	w0, ne  // ne = any
   80b18:	a8c27bfd 	ldp	x29, x30, [sp], #32
   80b1c:	d65f03c0 	ret
   80b20:	52800c42 	mov	w2, #0x62                  	// #98
   80b24:	b00000c1 	adrp	x1, 99000 <_ZN8CGPIOPin7SetModeE9TGPIOModei+0x50>
   80b28:	b00000c0 	adrp	x0, 99000 <_ZN8CGPIOPin7SetModeE9TGPIOModei+0x50>
   80b2c:	913a4021 	add	x1, x1, #0xe90
   80b30:	913ac000 	add	x0, x0, #0xeb0
   80b34:	97ffff43 	bl	80840 <uspi_assertion_failed>
   80b38:	f940be60 	ldr	x0, [x19, #376]
   80b3c:	f9400bf3 	ldr	x19, [sp, #16]
   80b40:	f9459400 	ldr	x0, [x0, #2856]
   80b44:	a8c27bfd 	ldp	x29, x30, [sp], #32
   80b48:	f100001f 	cmp	x0, #0x0
   80b4c:	1a9f07e0 	cset	w0, ne  // ne = any
   80b50:	d65f03c0 	ret
   80b54:	d503201f 	nop
   80b58:	d503201f 	nop
   80b5c:	d503201f 	nop

0000000000080b60 <USPiKeyboardRegisterKeyPressedHandler>:
   80b60:	a9be7bfd 	stp	x29, x30, [sp, #-32]!
   80b64:	910003fd 	mov	x29, sp
   80b68:	a90153f3 	stp	x19, x20, [sp, #16]
   80b6c:	d00000f3 	adrp	x19, 9e000 <_ZZN8CGPIOPin20SetAlternateFunctionEjE11FunctionMap+0x420>
   80b70:	f940be61 	ldr	x1, [x19, #376]
   80b74:	aa0003f4 	mov	x20, x0
   80b78:	b40000e1 	cbz	x1, 80b94 <USPiKeyboardRegisterKeyPressedHandler+0x34>
   80b7c:	f9459420 	ldr	x0, [x1, #2856]
   80b80:	b40001c0 	cbz	x0, 80bb8 <USPiKeyboardRegisterKeyPressedHandler+0x58>
   80b84:	aa1403e1 	mov	x1, x20
   80b88:	a94153f3 	ldp	x19, x20, [sp, #16]
   80b8c:	a8c27bfd 	ldp	x29, x30, [sp], #32
   80b90:	140035f8 	b	8e370 <USBKeyboardDeviceRegisterKeyPressedHandler>
   80b94:	b00000c1 	adrp	x1, 99000 <_ZN8CGPIOPin7SetModeE9TGPIOModei+0x50>
   80b98:	b00000c0 	adrp	x0, 99000 <_ZN8CGPIOPin7SetModeE9TGPIOModei+0x50>
   80b9c:	913a4021 	add	x1, x1, #0xe90
   80ba0:	913ac000 	add	x0, x0, #0xeb0
   80ba4:	52800d02 	mov	w2, #0x68                  	// #104
   80ba8:	97ffff26 	bl	80840 <uspi_assertion_failed>
   80bac:	f940be61 	ldr	x1, [x19, #376]
   80bb0:	f9459420 	ldr	x0, [x1, #2856]
   80bb4:	b5fffe80 	cbnz	x0, 80b84 <USPiKeyboardRegisterKeyPressedHandler+0x24>
   80bb8:	52800d22 	mov	w2, #0x69                  	// #105
   80bbc:	b00000c1 	adrp	x1, 99000 <_ZN8CGPIOPin7SetModeE9TGPIOModei+0x50>
   80bc0:	b00000c0 	adrp	x0, 99000 <_ZN8CGPIOPin7SetModeE9TGPIOModei+0x50>
   80bc4:	913a4021 	add	x1, x1, #0xe90
   80bc8:	913d4000 	add	x0, x0, #0xf50
   80bcc:	97ffff1d 	bl	80840 <uspi_assertion_failed>
   80bd0:	f940be60 	ldr	x0, [x19, #376]
   80bd4:	aa1403e1 	mov	x1, x20
   80bd8:	a94153f3 	ldp	x19, x20, [sp, #16]
   80bdc:	a8c27bfd 	ldp	x29, x30, [sp], #32
   80be0:	f9459400 	ldr	x0, [x0, #2856]
   80be4:	140035e3 	b	8e370 <USBKeyboardDeviceRegisterKeyPressedHandler>
   80be8:	d503201f 	nop
   80bec:	d503201f 	nop

0000000000080bf0 <USPiKeyboardRegisterShutdownHandler>:
   80bf0:	a9be7bfd 	stp	x29, x30, [sp, #-32]!
   80bf4:	910003fd 	mov	x29, sp
   80bf8:	a90153f3 	stp	x19, x20, [sp, #16]
   80bfc:	d00000f3 	adrp	x19, 9e000 <_ZZN8CGPIOPin20SetAlternateFunctionEjE11FunctionMap+0x420>
   80c00:	f940be61 	ldr	x1, [x19, #376]
   80c04:	aa0003f4 	mov	x20, x0
   80c08:	b40000e1 	cbz	x1, 80c24 <USPiKeyboardRegisterShutdownHandler+0x34>
   80c0c:	f9459420 	ldr	x0, [x1, #2856]
   80c10:	b40001c0 	cbz	x0, 80c48 <USPiKeyboardRegisterShutdownHandler+0x58>
   80c14:	aa1403e1 	mov	x1, x20
   80c18:	a94153f3 	ldp	x19, x20, [sp, #16]
   80c1c:	a8c27bfd 	ldp	x29, x30, [sp], #32
   80c20:	1400360c 	b	8e450 <USBKeyboardDeviceRegisterShutdownHandler>
   80c24:	b00000c1 	adrp	x1, 99000 <_ZN8CGPIOPin7SetModeE9TGPIOModei+0x50>
   80c28:	b00000c0 	adrp	x0, 99000 <_ZN8CGPIOPin7SetModeE9TGPIOModei+0x50>
   80c2c:	913a4021 	add	x1, x1, #0xe90
   80c30:	913ac000 	add	x0, x0, #0xeb0
   80c34:	52800de2 	mov	w2, #0x6f                  	// #111
   80c38:	97ffff02 	bl	80840 <uspi_assertion_failed>
   80c3c:	f940be61 	ldr	x1, [x19, #376]
   80c40:	f9459420 	ldr	x0, [x1, #2856]
   80c44:	b5fffe80 	cbnz	x0, 80c14 <USPiKeyboardRegisterShutdownHandler+0x24>
   80c48:	52800e02 	mov	w2, #0x70                  	// #112
   80c4c:	b00000c1 	adrp	x1, 99000 <_ZN8CGPIOPin7SetModeE9TGPIOModei+0x50>
   80c50:	b00000c0 	adrp	x0, 99000 <_ZN8CGPIOPin7SetModeE9TGPIOModei+0x50>
   80c54:	913a4021 	add	x1, x1, #0xe90
   80c58:	913d4000 	add	x0, x0, #0xf50
   80c5c:	97fffef9 	bl	80840 <uspi_assertion_failed>
   80c60:	f940be60 	ldr	x0, [x19, #376]
   80c64:	aa1403e1 	mov	x1, x20
   80c68:	a94153f3 	ldp	x19, x20, [sp, #16]
   80c6c:	a8c27bfd 	ldp	x29, x30, [sp], #32
   80c70:	f9459400 	ldr	x0, [x0, #2856]
   80c74:	140035f7 	b	8e450 <USBKeyboardDeviceRegisterShutdownHandler>
   80c78:	d503201f 	nop
   80c7c:	d503201f 	nop

0000000000080c80 <USPiKeyboardUpdateLEDs>:
   80c80:	a9be7bfd 	stp	x29, x30, [sp, #-32]!
   80c84:	910003fd 	mov	x29, sp
   80c88:	f9000bf3 	str	x19, [sp, #16]
   80c8c:	d00000f3 	adrp	x19, 9e000 <_ZZN8CGPIOPin20SetAlternateFunctionEjE11FunctionMap+0x420>
   80c90:	f940be60 	ldr	x0, [x19, #376]
   80c94:	b40000c0 	cbz	x0, 80cac <USPiKeyboardUpdateLEDs+0x2c>
   80c98:	f9459400 	ldr	x0, [x0, #2856]
   80c9c:	b40001a0 	cbz	x0, 80cd0 <USPiKeyboardUpdateLEDs+0x50>
   80ca0:	f9400bf3 	ldr	x19, [sp, #16]
   80ca4:	a8c27bfd 	ldp	x29, x30, [sp], #32
   80ca8:	140036e2 	b	8e830 <USBKeyboardDeviceUpdateLEDs>
   80cac:	b00000c1 	adrp	x1, 99000 <_ZN8CGPIOPin7SetModeE9TGPIOModei+0x50>
   80cb0:	b00000c0 	adrp	x0, 99000 <_ZN8CGPIOPin7SetModeE9TGPIOModei+0x50>
   80cb4:	913a4021 	add	x1, x1, #0xe90
   80cb8:	913ac000 	add	x0, x0, #0xeb0
   80cbc:	52800ec2 	mov	w2, #0x76                  	// #118
   80cc0:	97fffee0 	bl	80840 <uspi_assertion_failed>
   80cc4:	f940be60 	ldr	x0, [x19, #376]
   80cc8:	f9459400 	ldr	x0, [x0, #2856]
   80ccc:	b5fffea0 	cbnz	x0, 80ca0 <USPiKeyboardUpdateLEDs+0x20>
   80cd0:	52800ee2 	mov	w2, #0x77                  	// #119
   80cd4:	b00000c1 	adrp	x1, 99000 <_ZN8CGPIOPin7SetModeE9TGPIOModei+0x50>
   80cd8:	b00000c0 	adrp	x0, 99000 <_ZN8CGPIOPin7SetModeE9TGPIOModei+0x50>
   80cdc:	913a4021 	add	x1, x1, #0xe90
   80ce0:	913d4000 	add	x0, x0, #0xf50
   80ce4:	97fffed7 	bl	80840 <uspi_assertion_failed>
   80ce8:	f940be60 	ldr	x0, [x19, #376]
   80cec:	f9400bf3 	ldr	x19, [sp, #16]
   80cf0:	a8c27bfd 	ldp	x29, x30, [sp], #32
   80cf4:	f9459400 	ldr	x0, [x0, #2856]
   80cf8:	140036ce 	b	8e830 <USBKeyboardDeviceUpdateLEDs>
   80cfc:	d503201f 	nop

0000000000080d00 <USPiKeyboardRegisterKeyStatusHandlerRaw>:
   80d00:	a9be7bfd 	stp	x29, x30, [sp, #-32]!
   80d04:	910003fd 	mov	x29, sp
   80d08:	a90153f3 	stp	x19, x20, [sp, #16]
   80d0c:	d00000f3 	adrp	x19, 9e000 <_ZZN8CGPIOPin20SetAlternateFunctionEjE11FunctionMap+0x420>
   80d10:	f940be61 	ldr	x1, [x19, #376]
   80d14:	aa0003f4 	mov	x20, x0
   80d18:	b40000e1 	cbz	x1, 80d34 <USPiKeyboardRegisterKeyStatusHandlerRaw+0x34>
   80d1c:	f9459420 	ldr	x0, [x1, #2856]
   80d20:	b40001c0 	cbz	x0, 80d58 <USPiKeyboardRegisterKeyStatusHandlerRaw+0x58>
   80d24:	aa1403e1 	mov	x1, x20
   80d28:	a94153f3 	ldp	x19, x20, [sp, #16]
   80d2c:	a8c27bfd 	ldp	x29, x30, [sp], #32
   80d30:	140035e4 	b	8e4c0 <USBKeyboardDeviceRegisterKeyStatusHandlerRaw>
   80d34:	b00000c1 	adrp	x1, 99000 <_ZN8CGPIOPin7SetModeE9TGPIOModei+0x50>
   80d38:	b00000c0 	adrp	x0, 99000 <_ZN8CGPIOPin7SetModeE9TGPIOModei+0x50>
   80d3c:	913a4021 	add	x1, x1, #0xe90
   80d40:	913ac000 	add	x0, x0, #0xeb0
   80d44:	52800fa2 	mov	w2, #0x7d                  	// #125
   80d48:	97fffebe 	bl	80840 <uspi_assertion_failed>
   80d4c:	f940be61 	ldr	x1, [x19, #376]
   80d50:	f9459420 	ldr	x0, [x1, #2856]
   80d54:	b5fffe80 	cbnz	x0, 80d24 <USPiKeyboardRegisterKeyStatusHandlerRaw+0x24>
   80d58:	52800fc2 	mov	w2, #0x7e                  	// #126
   80d5c:	b00000c1 	adrp	x1, 99000 <_ZN8CGPIOPin7SetModeE9TGPIOModei+0x50>
   80d60:	b00000c0 	adrp	x0, 99000 <_ZN8CGPIOPin7SetModeE9TGPIOModei+0x50>
   80d64:	913a4021 	add	x1, x1, #0xe90
   80d68:	913d4000 	add	x0, x0, #0xf50
   80d6c:	97fffeb5 	bl	80840 <uspi_assertion_failed>
   80d70:	f940be60 	ldr	x0, [x19, #376]
   80d74:	aa1403e1 	mov	x1, x20
   80d78:	a94153f3 	ldp	x19, x20, [sp, #16]
   80d7c:	a8c27bfd 	ldp	x29, x30, [sp], #32
   80d80:	f9459400 	ldr	x0, [x0, #2856]
   80d84:	140035cf 	b	8e4c0 <USBKeyboardDeviceRegisterKeyStatusHandlerRaw>
   80d88:	d503201f 	nop
   80d8c:	d503201f 	nop

0000000000080d90 <USPiKeyboardSetLEDs>:
   80d90:	a9be7bfd 	stp	x29, x30, [sp, #-32]!
   80d94:	910003fd 	mov	x29, sp
   80d98:	a90153f3 	stp	x19, x20, [sp, #16]
   80d9c:	d00000f3 	adrp	x19, 9e000 <_ZZN8CGPIOPin20SetAlternateFunctionEjE11FunctionMap+0x420>
   80da0:	f940be61 	ldr	x1, [x19, #376]
   80da4:	12001c14 	and	w20, w0, #0xff
   80da8:	b40000e1 	cbz	x1, 80dc4 <USPiKeyboardSetLEDs+0x34>
   80dac:	f9459420 	ldr	x0, [x1, #2856]
   80db0:	b40001c0 	cbz	x0, 80de8 <USPiKeyboardSetLEDs+0x58>
   80db4:	2a1403e1 	mov	w1, w20
   80db8:	a94153f3 	ldp	x19, x20, [sp, #16]
   80dbc:	a8c27bfd 	ldp	x29, x30, [sp], #32
   80dc0:	140035dc 	b	8e530 <USBKeyboardDeviceSetLEDs>
   80dc4:	b00000c1 	adrp	x1, 99000 <_ZN8CGPIOPin7SetModeE9TGPIOModei+0x50>
   80dc8:	b00000c0 	adrp	x0, 99000 <_ZN8CGPIOPin7SetModeE9TGPIOModei+0x50>
   80dcc:	913a4021 	add	x1, x1, #0xe90
   80dd0:	913ac000 	add	x0, x0, #0xeb0
   80dd4:	52801082 	mov	w2, #0x84                  	// #132
   80dd8:	97fffe9a 	bl	80840 <uspi_assertion_failed>
   80ddc:	f940be61 	ldr	x1, [x19, #376]
   80de0:	f9459420 	ldr	x0, [x1, #2856]
   80de4:	b5fffe80 	cbnz	x0, 80db4 <USPiKeyboardSetLEDs+0x24>
   80de8:	528010a2 	mov	w2, #0x85                  	// #133
   80dec:	b00000c1 	adrp	x1, 99000 <_ZN8CGPIOPin7SetModeE9TGPIOModei+0x50>
   80df0:	b00000c0 	adrp	x0, 99000 <_ZN8CGPIOPin7SetModeE9TGPIOModei+0x50>
   80df4:	913a4021 	add	x1, x1, #0xe90
   80df8:	913d4000 	add	x0, x0, #0xf50
   80dfc:	97fffe91 	bl	80840 <uspi_assertion_failed>
   80e00:	f940be60 	ldr	x0, [x19, #376]
   80e04:	2a1403e1 	mov	w1, w20
   80e08:	a94153f3 	ldp	x19, x20, [sp, #16]
   80e0c:	a8c27bfd 	ldp	x29, x30, [sp], #32
   80e10:	f9459400 	ldr	x0, [x0, #2856]
   80e14:	140035c7 	b	8e530 <USBKeyboardDeviceSetLEDs>
   80e18:	d503201f 	nop
   80e1c:	d503201f 	nop

0000000000080e20 <USPiMouseAvailable>:
   80e20:	a9be7bfd 	stp	x29, x30, [sp, #-32]!
   80e24:	910003fd 	mov	x29, sp
   80e28:	f9000bf3 	str	x19, [sp, #16]
   80e2c:	d00000f3 	adrp	x19, 9e000 <_ZZN8CGPIOPin20SetAlternateFunctionEjE11FunctionMap+0x420>
   80e30:	f940be60 	ldr	x0, [x19, #376]
   80e34:	b40000e0 	cbz	x0, 80e50 <USPiMouseAvailable+0x30>
   80e38:	f9459800 	ldr	x0, [x0, #2864]
   80e3c:	f9400bf3 	ldr	x19, [sp, #16]
   80e40:	f100001f 	cmp	x0, #0x0
   80e44:	1a9f07e0 	cset	w0, ne  // ne = any
   80e48:	a8c27bfd 	ldp	x29, x30, [sp], #32
   80e4c:	d65f03c0 	ret
   80e50:	52801162 	mov	w2, #0x8b                  	// #139
   80e54:	b00000c1 	adrp	x1, 99000 <_ZN8CGPIOPin7SetModeE9TGPIOModei+0x50>
   80e58:	b00000c0 	adrp	x0, 99000 <_ZN8CGPIOPin7SetModeE9TGPIOModei+0x50>
   80e5c:	913a4021 	add	x1, x1, #0xe90
   80e60:	913ac000 	add	x0, x0, #0xeb0
   80e64:	97fffe77 	bl	80840 <uspi_assertion_failed>
   80e68:	f940be60 	ldr	x0, [x19, #376]
   80e6c:	f9400bf3 	ldr	x19, [sp, #16]
   80e70:	f9459800 	ldr	x0, [x0, #2864]
   80e74:	a8c27bfd 	ldp	x29, x30, [sp], #32
   80e78:	f100001f 	cmp	x0, #0x0
   80e7c:	1a9f07e0 	cset	w0, ne  // ne = any
   80e80:	d65f03c0 	ret
   80e84:	d503201f 	nop
   80e88:	d503201f 	nop
   80e8c:	d503201f 	nop

0000000000080e90 <USPiMouseRegisterStatusHandler>:
   80e90:	a9be7bfd 	stp	x29, x30, [sp, #-32]!
   80e94:	910003fd 	mov	x29, sp
   80e98:	a90153f3 	stp	x19, x20, [sp, #16]
   80e9c:	d00000f3 	adrp	x19, 9e000 <_ZZN8CGPIOPin20SetAlternateFunctionEjE11FunctionMap+0x420>
   80ea0:	f940be61 	ldr	x1, [x19, #376]
   80ea4:	aa0003f4 	mov	x20, x0
   80ea8:	b40000e1 	cbz	x1, 80ec4 <USPiMouseRegisterStatusHandler+0x34>
   80eac:	f9459820 	ldr	x0, [x1, #2864]
   80eb0:	b40001c0 	cbz	x0, 80ee8 <USPiMouseRegisterStatusHandler+0x58>
   80eb4:	aa1403e1 	mov	x1, x20
   80eb8:	a94153f3 	ldp	x19, x20, [sp, #16]
   80ebc:	a8c27bfd 	ldp	x29, x30, [sp], #32
   80ec0:	140038ac 	b	8f170 <USBMouseDeviceRegisterStatusHandler>
   80ec4:	b00000c1 	adrp	x1, 99000 <_ZN8CGPIOPin7SetModeE9TGPIOModei+0x50>
   80ec8:	b00000c0 	adrp	x0, 99000 <_ZN8CGPIOPin7SetModeE9TGPIOModei+0x50>
   80ecc:	913a4021 	add	x1, x1, #0xe90
   80ed0:	913ac000 	add	x0, x0, #0xeb0
   80ed4:	52801222 	mov	w2, #0x91                  	// #145
   80ed8:	97fffe5a 	bl	80840 <uspi_assertion_failed>
   80edc:	f940be61 	ldr	x1, [x19, #376]
   80ee0:	f9459820 	ldr	x0, [x1, #2864]
   80ee4:	b5fffe80 	cbnz	x0, 80eb4 <USPiMouseRegisterStatusHandler+0x24>
   80ee8:	52801242 	mov	w2, #0x92                  	// #146
   80eec:	b00000c1 	adrp	x1, 99000 <_ZN8CGPIOPin7SetModeE9TGPIOModei+0x50>
   80ef0:	b00000c0 	adrp	x0, 99000 <_ZN8CGPIOPin7SetModeE9TGPIOModei+0x50>
   80ef4:	913a4021 	add	x1, x1, #0xe90
   80ef8:	913da000 	add	x0, x0, #0xf68
   80efc:	97fffe51 	bl	80840 <uspi_assertion_failed>
   80f00:	f940be60 	ldr	x0, [x19, #376]
   80f04:	aa1403e1 	mov	x1, x20
   80f08:	a94153f3 	ldp	x19, x20, [sp, #16]
   80f0c:	a8c27bfd 	ldp	x29, x30, [sp], #32
   80f10:	f9459800 	ldr	x0, [x0, #2864]
   80f14:	14003897 	b	8f170 <USBMouseDeviceRegisterStatusHandler>
   80f18:	d503201f 	nop
   80f1c:	d503201f 	nop

0000000000080f20 <USPiMassStorageDeviceAvailable>:
   80f20:	a9be7bfd 	stp	x29, x30, [sp, #-32]!
   80f24:	910003fd 	mov	x29, sp
   80f28:	f9000bf3 	str	x19, [sp, #16]
   80f2c:	d00000f3 	adrp	x19, 9e000 <_ZZN8CGPIOPin20SetAlternateFunctionEjE11FunctionMap+0x420>
   80f30:	f940be61 	ldr	x1, [x19, #376]
   80f34:	b4000161 	cbz	x1, 80f60 <USPiMassStorageDeviceAvailable+0x40>
   80f38:	912ce021 	add	x1, x1, #0xb38
   80f3c:	d2800000 	mov	x0, #0x0                   	// #0
   80f40:	f8607822 	ldr	x2, [x1, x0, lsl #3]
   80f44:	b4000082 	cbz	x2, 80f54 <USPiMassStorageDeviceAvailable+0x34>
   80f48:	91000400 	add	x0, x0, #0x1
   80f4c:	f100101f 	cmp	x0, #0x4
   80f50:	54ffff81 	b.ne	80f40 <USPiMassStorageDeviceAvailable+0x20>  // b.any
   80f54:	f9400bf3 	ldr	x19, [sp, #16]
   80f58:	a8c27bfd 	ldp	x29, x30, [sp], #32
   80f5c:	d65f03c0 	ret
   80f60:	b00000c1 	adrp	x1, 99000 <_ZN8CGPIOPin7SetModeE9TGPIOModei+0x50>
   80f64:	b00000c0 	adrp	x0, 99000 <_ZN8CGPIOPin7SetModeE9TGPIOModei+0x50>
   80f68:	913a4021 	add	x1, x1, #0xe90
   80f6c:	913ac000 	add	x0, x0, #0xeb0
   80f70:	52801302 	mov	w2, #0x98                  	// #152
   80f74:	97fffe33 	bl	80840 <uspi_assertion_failed>
   80f78:	f940be61 	ldr	x1, [x19, #376]
   80f7c:	17ffffef 	b	80f38 <USPiMassStorageDeviceAvailable+0x18>

0000000000080f80 <USPiMassStorageDeviceRead>:
   80f80:	a9bb7bfd 	stp	x29, x30, [sp, #-80]!
   80f84:	910003fd 	mov	x29, sp
   80f88:	a90153f3 	stp	x19, x20, [sp, #16]
   80f8c:	d00000f4 	adrp	x20, 9e000 <_ZZN8CGPIOPin20SetAlternateFunctionEjE11FunctionMap+0x420>
   80f90:	f940be84 	ldr	x4, [x20, #376]
   80f94:	a9025bf5 	stp	x21, x22, [sp, #32]
   80f98:	aa0003f5 	mov	x21, x0
   80f9c:	f9001bf7 	str	x23, [sp, #48]
   80fa0:	aa0103f6 	mov	x22, x1
   80fa4:	2a0203f7 	mov	w23, w2
   80fa8:	b40002e4 	cbz	x4, 81004 <USPiMassStorageDeviceRead+0x84>
   80fac:	71000c7f 	cmp	w3, #0x3
   80fb0:	540003c8 	b.hi	81028 <USPiMassStorageDeviceRead+0xa8>  // b.pmore
   80fb4:	f940be80 	ldr	x0, [x20, #376]
   80fb8:	d37d7c63 	ubfiz	x3, x3, #3, #32
   80fbc:	912cc073 	add	x19, x3, #0xb30
   80fc0:	8b130000 	add	x0, x0, x19
   80fc4:	f9400400 	ldr	x0, [x0, #8]
   80fc8:	b4000300 	cbz	x0, 81028 <USPiMassStorageDeviceRead+0xa8>
   80fcc:	aa1503e1 	mov	x1, x21
   80fd0:	94002ef0 	bl	8cb90 <USBBulkOnlyMassStorageDeviceSeek>
   80fd4:	eb15001f 	cmp	x0, x21
   80fd8:	54000281 	b.ne	81028 <USPiMassStorageDeviceRead+0xa8>  // b.any
   80fdc:	f940be83 	ldr	x3, [x20, #376]
   80fe0:	2a1703e2 	mov	w2, w23
   80fe4:	aa1603e1 	mov	x1, x22
   80fe8:	8b130073 	add	x19, x3, x19
   80fec:	a9425bf5 	ldp	x21, x22, [sp, #32]
   80ff0:	f9400660 	ldr	x0, [x19, #8]
   80ff4:	a94153f3 	ldp	x19, x20, [sp, #16]
   80ff8:	f9401bf7 	ldr	x23, [sp, #48]
   80ffc:	a8c57bfd 	ldp	x29, x30, [sp], #80
   81000:	140031ac 	b	8d6b0 <USBBulkOnlyMassStorageDeviceRead>
   81004:	900000c1 	adrp	x1, 99000 <_ZN8CGPIOPin7SetModeE9TGPIOModei+0x50>
   81008:	900000c0 	adrp	x0, 99000 <_ZN8CGPIOPin7SetModeE9TGPIOModei+0x50>
   8100c:	913a4021 	add	x1, x1, #0xe90
   81010:	913ac000 	add	x0, x0, #0xeb0
   81014:	52801502 	mov	w2, #0xa8                  	// #168
   81018:	b9004fe3 	str	w3, [sp, #76]
   8101c:	97fffe09 	bl	80840 <uspi_assertion_failed>
   81020:	b9404fe3 	ldr	w3, [sp, #76]
   81024:	17ffffe2 	b	80fac <USPiMassStorageDeviceRead+0x2c>
   81028:	12800000 	mov	w0, #0xffffffff            	// #-1
   8102c:	a94153f3 	ldp	x19, x20, [sp, #16]
   81030:	a9425bf5 	ldp	x21, x22, [sp, #32]
   81034:	f9401bf7 	ldr	x23, [sp, #48]
   81038:	a8c57bfd 	ldp	x29, x30, [sp], #80
   8103c:	d65f03c0 	ret

0000000000081040 <USPiMassStorageDeviceWrite>:
   81040:	a9bb7bfd 	stp	x29, x30, [sp, #-80]!
   81044:	910003fd 	mov	x29, sp
   81048:	a90153f3 	stp	x19, x20, [sp, #16]
   8104c:	b00000f4 	adrp	x20, 9e000 <_ZZN8CGPIOPin20SetAlternateFunctionEjE11FunctionMap+0x420>
   81050:	f940be84 	ldr	x4, [x20, #376]
   81054:	a9025bf5 	stp	x21, x22, [sp, #32]
   81058:	aa0003f5 	mov	x21, x0
   8105c:	f9001bf7 	str	x23, [sp, #48]
   81060:	aa0103f6 	mov	x22, x1
   81064:	2a0203f7 	mov	w23, w2
   81068:	b40002e4 	cbz	x4, 810c4 <USPiMassStorageDeviceWrite+0x84>
   8106c:	71000c7f 	cmp	w3, #0x3
   81070:	540003c8 	b.hi	810e8 <USPiMassStorageDeviceWrite+0xa8>  // b.pmore
   81074:	f940be80 	ldr	x0, [x20, #376]
   81078:	d37d7c63 	ubfiz	x3, x3, #3, #32
   8107c:	912cc073 	add	x19, x3, #0xb30
   81080:	8b130000 	add	x0, x0, x19
   81084:	f9400400 	ldr	x0, [x0, #8]
   81088:	b4000300 	cbz	x0, 810e8 <USPiMassStorageDeviceWrite+0xa8>
   8108c:	aa1503e1 	mov	x1, x21
   81090:	94002ec0 	bl	8cb90 <USBBulkOnlyMassStorageDeviceSeek>
   81094:	eb15001f 	cmp	x0, x21
   81098:	54000281 	b.ne	810e8 <USPiMassStorageDeviceWrite+0xa8>  // b.any
   8109c:	f940be83 	ldr	x3, [x20, #376]
   810a0:	2a1703e2 	mov	w2, w23
   810a4:	aa1603e1 	mov	x1, x22
   810a8:	8b130073 	add	x19, x3, x19
   810ac:	a9425bf5 	ldp	x21, x22, [sp, #32]
   810b0:	f9400660 	ldr	x0, [x19, #8]
   810b4:	a94153f3 	ldp	x19, x20, [sp, #16]
   810b8:	f9401bf7 	ldr	x23, [sp, #48]
   810bc:	a8c57bfd 	ldp	x29, x30, [sp], #80
   810c0:	140031a8 	b	8d760 <USBBulkOnlyMassStorageDeviceWrite>
   810c4:	900000c1 	adrp	x1, 99000 <_ZN8CGPIOPin7SetModeE9TGPIOModei+0x50>
   810c8:	900000c0 	adrp	x0, 99000 <_ZN8CGPIOPin7SetModeE9TGPIOModei+0x50>
   810cc:	913a4021 	add	x1, x1, #0xe90
   810d0:	913ac000 	add	x0, x0, #0xeb0
   810d4:	52801742 	mov	w2, #0xba                  	// #186
   810d8:	b9004fe3 	str	w3, [sp, #76]
   810dc:	97fffdd9 	bl	80840 <uspi_assertion_failed>
   810e0:	b9404fe3 	ldr	w3, [sp, #76]
   810e4:	17ffffe2 	b	8106c <USPiMassStorageDeviceWrite+0x2c>
   810e8:	12800000 	mov	w0, #0xffffffff            	// #-1
   810ec:	a94153f3 	ldp	x19, x20, [sp, #16]
   810f0:	a9425bf5 	ldp	x21, x22, [sp, #32]
   810f4:	f9401bf7 	ldr	x23, [sp, #48]
   810f8:	a8c57bfd 	ldp	x29, x30, [sp], #80
   810fc:	d65f03c0 	ret

0000000000081100 <USPiMassStorageDeviceGetCapacity>:
   81100:	a9be7bfd 	stp	x29, x30, [sp, #-32]!
   81104:	910003fd 	mov	x29, sp
   81108:	a90153f3 	stp	x19, x20, [sp, #16]
   8110c:	b00000f4 	adrp	x20, 9e000 <_ZZN8CGPIOPin20SetAlternateFunctionEjE11FunctionMap+0x420>
   81110:	f940be81 	ldr	x1, [x20, #376]
   81114:	2a0003f3 	mov	w19, w0
   81118:	b40001c1 	cbz	x1, 81150 <USPiMassStorageDeviceGetCapacity+0x50>
   8111c:	71000e7f 	cmp	w19, #0x3
   81120:	54000108 	b.hi	81140 <USPiMassStorageDeviceGetCapacity+0x40>  // b.pmore
   81124:	f940be80 	ldr	x0, [x20, #376]
   81128:	8b334c13 	add	x19, x0, w19, uxtw #3
   8112c:	f9459e60 	ldr	x0, [x19, #2872]
   81130:	b4000080 	cbz	x0, 81140 <USPiMassStorageDeviceGetCapacity+0x40>
   81134:	a94153f3 	ldp	x19, x20, [sp, #16]
   81138:	a8c27bfd 	ldp	x29, x30, [sp], #32
   8113c:	14002ead 	b	8cbf0 <USBBulkOnlyMassStorageDeviceGetCapacity>
   81140:	52800000 	mov	w0, #0x0                   	// #0
   81144:	a94153f3 	ldp	x19, x20, [sp, #16]
   81148:	a8c27bfd 	ldp	x29, x30, [sp], #32
   8114c:	d65f03c0 	ret
   81150:	900000c1 	adrp	x1, 99000 <_ZN8CGPIOPin7SetModeE9TGPIOModei+0x50>
   81154:	900000c0 	adrp	x0, 99000 <_ZN8CGPIOPin7SetModeE9TGPIOModei+0x50>
   81158:	913a4021 	add	x1, x1, #0xe90
   8115c:	913ac000 	add	x0, x0, #0xeb0
   81160:	52801982 	mov	w2, #0xcc                  	// #204
   81164:	97fffdb7 	bl	80840 <uspi_assertion_failed>
   81168:	17ffffed 	b	8111c <USPiMassStorageDeviceGetCapacity+0x1c>
   8116c:	d503201f 	nop

0000000000081170 <USPiEthernetAvailable>:
   81170:	a9be7bfd 	stp	x29, x30, [sp, #-32]!
   81174:	910003fd 	mov	x29, sp
   81178:	f9000bf3 	str	x19, [sp, #16]
   8117c:	b00000f3 	adrp	x19, 9e000 <_ZZN8CGPIOPin20SetAlternateFunctionEjE11FunctionMap+0x420>
   81180:	f940be61 	ldr	x1, [x19, #376]
   81184:	b40001a1 	cbz	x1, 811b8 <USPiEthernetAvailable+0x48>
   81188:	f945ac22 	ldr	x2, [x1, #2904]
   8118c:	52800020 	mov	w0, #0x1                   	// #1
   81190:	b4000082 	cbz	x2, 811a0 <USPiEthernetAvailable+0x30>
   81194:	f9400bf3 	ldr	x19, [sp, #16]
   81198:	a8c27bfd 	ldp	x29, x30, [sp], #32
   8119c:	d65f03c0 	ret
   811a0:	f945b020 	ldr	x0, [x1, #2912]
   811a4:	f9400bf3 	ldr	x19, [sp, #16]
   811a8:	f100001f 	cmp	x0, #0x0
   811ac:	1a9f07e0 	cset	w0, ne  // ne = any
   811b0:	a8c27bfd 	ldp	x29, x30, [sp], #32
   811b4:	d65f03c0 	ret
   811b8:	900000c1 	adrp	x1, 99000 <_ZN8CGPIOPin7SetModeE9TGPIOModei+0x50>
   811bc:	900000c0 	adrp	x0, 99000 <_ZN8CGPIOPin7SetModeE9TGPIOModei+0x50>
   811c0:	913a4021 	add	x1, x1, #0xe90
   811c4:	913ac000 	add	x0, x0, #0xeb0
   811c8:	52801b22 	mov	w2, #0xd9                  	// #217
   811cc:	97fffd9d 	bl	80840 <uspi_assertion_failed>
   811d0:	f940be61 	ldr	x1, [x19, #376]
   811d4:	17ffffed 	b	81188 <USPiEthernetAvailable+0x18>
   811d8:	d503201f 	nop
   811dc:	d503201f 	nop

00000000000811e0 <USPiGetMACAddress>:
   811e0:	a9be7bfd 	stp	x29, x30, [sp, #-32]!
   811e4:	910003fd 	mov	x29, sp
   811e8:	a90153f3 	stp	x19, x20, [sp, #16]
   811ec:	b00000f4 	adrp	x20, 9e000 <_ZZN8CGPIOPin20SetAlternateFunctionEjE11FunctionMap+0x420>
   811f0:	f940be81 	ldr	x1, [x20, #376]
   811f4:	aa0003f3 	mov	x19, x0
   811f8:	b4000361 	cbz	x1, 81264 <USPiGetMACAddress+0x84>
   811fc:	f945b020 	ldr	x0, [x1, #2912]
   81200:	b4000120 	cbz	x0, 81224 <USPiGetMACAddress+0x44>
   81204:	9400267f 	bl	8ac00 <LAN7800DeviceGetMACAddress>
   81208:	aa0003f4 	mov	x20, x0
   8120c:	b4000173 	cbz	x19, 81238 <USPiGetMACAddress+0x58>
   81210:	aa1303e1 	mov	x1, x19
   81214:	aa1403e0 	mov	x0, x20
   81218:	a94153f3 	ldp	x19, x20, [sp, #16]
   8121c:	a8c27bfd 	ldp	x29, x30, [sp], #32
   81220:	14001f98 	b	89080 <MACAddressCopyTo>
   81224:	f945ac20 	ldr	x0, [x1, #2904]
   81228:	b40002e0 	cbz	x0, 81284 <USPiGetMACAddress+0xa4>
   8122c:	94002301 	bl	89e30 <SMSC951xDeviceGetMACAddress>
   81230:	aa0003f4 	mov	x20, x0
   81234:	b5fffef3 	cbnz	x19, 81210 <USPiGetMACAddress+0x30>
   81238:	52801d82 	mov	w2, #0xec                  	// #236
   8123c:	900000c1 	adrp	x1, 99000 <_ZN8CGPIOPin7SetModeE9TGPIOModei+0x50>
   81240:	d00000c0 	adrp	x0, 9b000 <FromHub+0xb8>
   81244:	913a4021 	add	x1, x1, #0xe90
   81248:	91370000 	add	x0, x0, #0xdc0
   8124c:	97fffd7d 	bl	80840 <uspi_assertion_failed>
   81250:	aa1303e1 	mov	x1, x19
   81254:	aa1403e0 	mov	x0, x20
   81258:	a94153f3 	ldp	x19, x20, [sp, #16]
   8125c:	a8c27bfd 	ldp	x29, x30, [sp], #32
   81260:	14001f88 	b	89080 <MACAddressCopyTo>
   81264:	900000c1 	adrp	x1, 99000 <_ZN8CGPIOPin7SetModeE9TGPIOModei+0x50>
   81268:	900000c0 	adrp	x0, 99000 <_ZN8CGPIOPin7SetModeE9TGPIOModei+0x50>
   8126c:	913a4021 	add	x1, x1, #0xe90
   81270:	913ac000 	add	x0, x0, #0xeb0
   81274:	52801be2 	mov	w2, #0xdf                  	// #223
   81278:	97fffd72 	bl	80840 <uspi_assertion_failed>
   8127c:	f940be81 	ldr	x1, [x20, #376]
   81280:	17ffffdf 	b	811fc <USPiGetMACAddress+0x1c>
   81284:	900000c1 	adrp	x1, 99000 <_ZN8CGPIOPin7SetModeE9TGPIOModei+0x50>
   81288:	900000c0 	adrp	x0, 99000 <_ZN8CGPIOPin7SetModeE9TGPIOModei+0x50>
   8128c:	913a4021 	add	x1, x1, #0xe90
   81290:	913e2000 	add	x0, x0, #0xf88
   81294:	52801d02 	mov	w2, #0xe8                  	// #232
   81298:	97fffd6a 	bl	80840 <uspi_assertion_failed>
   8129c:	f940be80 	ldr	x0, [x20, #376]
   812a0:	f945ac00 	ldr	x0, [x0, #2904]
   812a4:	17ffffe2 	b	8122c <USPiGetMACAddress+0x4c>
   812a8:	d503201f 	nop
   812ac:	d503201f 	nop

00000000000812b0 <USPiEthernetIsLinkUp>:
   812b0:	a9be7bfd 	stp	x29, x30, [sp, #-32]!
   812b4:	910003fd 	mov	x29, sp
   812b8:	f9000bf3 	str	x19, [sp, #16]
   812bc:	b00000f3 	adrp	x19, 9e000 <_ZZN8CGPIOPin20SetAlternateFunctionEjE11FunctionMap+0x420>
   812c0:	f940be61 	ldr	x1, [x19, #376]
   812c4:	b4000221 	cbz	x1, 81308 <USPiEthernetIsLinkUp+0x58>
   812c8:	f945b020 	ldr	x0, [x1, #2912]
   812cc:	b5000120 	cbnz	x0, 812f0 <USPiEthernetIsLinkUp+0x40>
   812d0:	f945ac20 	ldr	x0, [x1, #2904]
   812d4:	b40002a0 	cbz	x0, 81328 <USPiEthernetIsLinkUp+0x78>
   812d8:	9400254e 	bl	8a810 <SMSC951xDeviceIsLinkUp>
   812dc:	7100001f 	cmp	w0, #0x0
   812e0:	1a9f07e0 	cset	w0, ne  // ne = any
   812e4:	f9400bf3 	ldr	x19, [sp, #16]
   812e8:	a8c27bfd 	ldp	x29, x30, [sp], #32
   812ec:	d65f03c0 	ret
   812f0:	94002860 	bl	8b470 <LAN7800DeviceIsLinkUp>
   812f4:	7100001f 	cmp	w0, #0x0
   812f8:	1a9f07e0 	cset	w0, ne  // ne = any
   812fc:	f9400bf3 	ldr	x19, [sp, #16]
   81300:	a8c27bfd 	ldp	x29, x30, [sp], #32
   81304:	d65f03c0 	ret
   81308:	900000c1 	adrp	x1, 99000 <_ZN8CGPIOPin7SetModeE9TGPIOModei+0x50>
   8130c:	900000c0 	adrp	x0, 99000 <_ZN8CGPIOPin7SetModeE9TGPIOModei+0x50>
   81310:	913a4021 	add	x1, x1, #0xe90
   81314:	913ac000 	add	x0, x0, #0xeb0
   81318:	52801e42 	mov	w2, #0xf2                  	// #242
   8131c:	97fffd49 	bl	80840 <uspi_assertion_failed>
   81320:	f940be61 	ldr	x1, [x19, #376]
   81324:	17ffffe9 	b	812c8 <USPiEthernetIsLinkUp+0x18>
   81328:	900000c1 	adrp	x1, 99000 <_ZN8CGPIOPin7SetModeE9TGPIOModei+0x50>
   8132c:	900000c0 	adrp	x0, 99000 <_ZN8CGPIOPin7SetModeE9TGPIOModei+0x50>
   81330:	913a4021 	add	x1, x1, #0xe90
   81334:	913e2000 	add	x0, x0, #0xf88
   81338:	52801f22 	mov	w2, #0xf9                  	// #249
   8133c:	97fffd41 	bl	80840 <uspi_assertion_failed>
   81340:	f940be60 	ldr	x0, [x19, #376]
   81344:	f945ac00 	ldr	x0, [x0, #2904]
   81348:	17ffffe4 	b	812d8 <USPiEthernetIsLinkUp+0x28>
   8134c:	d503201f 	nop

0000000000081350 <USPiSendFrame>:
   81350:	a9bd7bfd 	stp	x29, x30, [sp, #-48]!
   81354:	910003fd 	mov	x29, sp
   81358:	a90153f3 	stp	x19, x20, [sp, #16]
   8135c:	b00000f3 	adrp	x19, 9e000 <_ZZN8CGPIOPin20SetAlternateFunctionEjE11FunctionMap+0x420>
   81360:	f940be62 	ldr	x2, [x19, #376]
   81364:	f90013f5 	str	x21, [sp, #32]
   81368:	aa0003f4 	mov	x20, x0
   8136c:	2a0103f5 	mov	w21, w1
   81370:	b40002e2 	cbz	x2, 813cc <USPiSendFrame+0x7c>
   81374:	f945b040 	ldr	x0, [x2, #2912]
   81378:	b5000180 	cbnz	x0, 813a8 <USPiSendFrame+0x58>
   8137c:	f945ac40 	ldr	x0, [x2, #2904]
   81380:	b4000360 	cbz	x0, 813ec <USPiSendFrame+0x9c>
   81384:	2a1503e2 	mov	w2, w21
   81388:	aa1403e1 	mov	x1, x20
   8138c:	940022bd 	bl	89e80 <SMSC951xDeviceSendFrame>
   81390:	7100001f 	cmp	w0, #0x0
   81394:	1a9f07e0 	cset	w0, ne  // ne = any
   81398:	a94153f3 	ldp	x19, x20, [sp, #16]
   8139c:	f94013f5 	ldr	x21, [sp, #32]
   813a0:	a8c37bfd 	ldp	x29, x30, [sp], #48
   813a4:	d65f03c0 	ret
   813a8:	2a1503e2 	mov	w2, w21
   813ac:	aa1403e1 	mov	x1, x20
   813b0:	94002628 	bl	8ac50 <LAN7800DeviceSendFrame>
   813b4:	7100001f 	cmp	w0, #0x0
   813b8:	1a9f07e0 	cset	w0, ne  // ne = any
   813bc:	a94153f3 	ldp	x19, x20, [sp, #16]
   813c0:	f94013f5 	ldr	x21, [sp, #32]
   813c4:	a8c37bfd 	ldp	x29, x30, [sp], #48
   813c8:	d65f03c0 	ret
   813cc:	52801fe2 	mov	w2, #0xff                  	// #255
   813d0:	900000c1 	adrp	x1, 99000 <_ZN8CGPIOPin7SetModeE9TGPIOModei+0x50>
   813d4:	900000c0 	adrp	x0, 99000 <_ZN8CGPIOPin7SetModeE9TGPIOModei+0x50>
   813d8:	913a4021 	add	x1, x1, #0xe90
   813dc:	913ac000 	add	x0, x0, #0xeb0
   813e0:	97fffd18 	bl	80840 <uspi_assertion_failed>
   813e4:	f940be62 	ldr	x2, [x19, #376]
   813e8:	17ffffe3 	b	81374 <USPiSendFrame+0x24>
   813ec:	900000c1 	adrp	x1, 99000 <_ZN8CGPIOPin7SetModeE9TGPIOModei+0x50>
   813f0:	900000c0 	adrp	x0, 99000 <_ZN8CGPIOPin7SetModeE9TGPIOModei+0x50>
   813f4:	913a4021 	add	x1, x1, #0xe90
   813f8:	913e2000 	add	x0, x0, #0xf88
   813fc:	528020c2 	mov	w2, #0x106                 	// #262
   81400:	97fffd10 	bl	80840 <uspi_assertion_failed>
   81404:	f940be60 	ldr	x0, [x19, #376]
   81408:	f945ac00 	ldr	x0, [x0, #2904]
   8140c:	17ffffde 	b	81384 <USPiSendFrame+0x34>

0000000000081410 <USPiReceiveFrame>:
   81410:	a9bd7bfd 	stp	x29, x30, [sp, #-48]!
   81414:	910003fd 	mov	x29, sp
   81418:	a90153f3 	stp	x19, x20, [sp, #16]
   8141c:	b00000f3 	adrp	x19, 9e000 <_ZZN8CGPIOPin20SetAlternateFunctionEjE11FunctionMap+0x420>
   81420:	f940be62 	ldr	x2, [x19, #376]
   81424:	f90013f5 	str	x21, [sp, #32]
   81428:	aa0003f4 	mov	x20, x0
   8142c:	aa0103f5 	mov	x21, x1
   81430:	b40002e2 	cbz	x2, 8148c <USPiReceiveFrame+0x7c>
   81434:	f945b040 	ldr	x0, [x2, #2912]
   81438:	b5000180 	cbnz	x0, 81468 <USPiReceiveFrame+0x58>
   8143c:	f945ac40 	ldr	x0, [x2, #2904]
   81440:	b4000360 	cbz	x0, 814ac <USPiReceiveFrame+0x9c>
   81444:	aa1503e2 	mov	x2, x21
   81448:	aa1403e1 	mov	x1, x20
   8144c:	940022d1 	bl	89f90 <SMSC951xDeviceReceiveFrame>
   81450:	7100001f 	cmp	w0, #0x0
   81454:	1a9f07e0 	cset	w0, ne  // ne = any
   81458:	a94153f3 	ldp	x19, x20, [sp, #16]
   8145c:	f94013f5 	ldr	x21, [sp, #32]
   81460:	a8c37bfd 	ldp	x29, x30, [sp], #48
   81464:	d65f03c0 	ret
   81468:	aa1503e2 	mov	x2, x21
   8146c:	aa1403e1 	mov	x1, x20
   81470:	9400263c 	bl	8ad60 <LAN7800DeviceReceiveFrame>
   81474:	7100001f 	cmp	w0, #0x0
   81478:	1a9f07e0 	cset	w0, ne  // ne = any
   8147c:	a94153f3 	ldp	x19, x20, [sp, #16]
   81480:	f94013f5 	ldr	x21, [sp, #32]
   81484:	a8c37bfd 	ldp	x29, x30, [sp], #48
   81488:	d65f03c0 	ret
   8148c:	52802182 	mov	w2, #0x10c                 	// #268
   81490:	900000c1 	adrp	x1, 99000 <_ZN8CGPIOPin7SetModeE9TGPIOModei+0x50>
   81494:	900000c0 	adrp	x0, 99000 <_ZN8CGPIOPin7SetModeE9TGPIOModei+0x50>
   81498:	913a4021 	add	x1, x1, #0xe90
   8149c:	913ac000 	add	x0, x0, #0xeb0
   814a0:	97fffce8 	bl	80840 <uspi_assertion_failed>
   814a4:	f940be62 	ldr	x2, [x19, #376]
   814a8:	17ffffe3 	b	81434 <USPiReceiveFrame+0x24>
   814ac:	900000c1 	adrp	x1, 99000 <_ZN8CGPIOPin7SetModeE9TGPIOModei+0x50>
   814b0:	900000c0 	adrp	x0, 99000 <_ZN8CGPIOPin7SetModeE9TGPIOModei+0x50>
   814b4:	913a4021 	add	x1, x1, #0xe90
   814b8:	913e2000 	add	x0, x0, #0xf88
   814bc:	52802262 	mov	w2, #0x113                 	// #275
   814c0:	97fffce0 	bl	80840 <uspi_assertion_failed>
   814c4:	f940be60 	ldr	x0, [x19, #376]
   814c8:	f945ac00 	ldr	x0, [x0, #2904]
   814cc:	17ffffde 	b	81444 <USPiReceiveFrame+0x34>

00000000000814d0 <USPiGamePadAvailable>:
   814d0:	a9be7bfd 	stp	x29, x30, [sp, #-32]!
   814d4:	910003fd 	mov	x29, sp
   814d8:	f9000bf3 	str	x19, [sp, #16]
   814dc:	b00000f3 	adrp	x19, 9e000 <_ZZN8CGPIOPin20SetAlternateFunctionEjE11FunctionMap+0x420>
   814e0:	f940be61 	ldr	x1, [x19, #376]
   814e4:	b4000161 	cbz	x1, 81510 <USPiGamePadAvailable+0x40>
   814e8:	912da021 	add	x1, x1, #0xb68
   814ec:	d2800000 	mov	x0, #0x0                   	// #0
   814f0:	f8607822 	ldr	x2, [x1, x0, lsl #3]
   814f4:	b4000082 	cbz	x2, 81504 <USPiGamePadAvailable+0x34>
   814f8:	91000400 	add	x0, x0, #0x1
   814fc:	f100101f 	cmp	x0, #0x4
   81500:	54ffff81 	b.ne	814f0 <USPiGamePadAvailable+0x20>  // b.any
   81504:	f9400bf3 	ldr	x19, [sp, #16]
   81508:	a8c27bfd 	ldp	x29, x30, [sp], #32
   8150c:	d65f03c0 	ret
   81510:	900000c1 	adrp	x1, 99000 <_ZN8CGPIOPin7SetModeE9TGPIOModei+0x50>
   81514:	900000c0 	adrp	x0, 99000 <_ZN8CGPIOPin7SetModeE9TGPIOModei+0x50>
   81518:	913a4021 	add	x1, x1, #0xe90
   8151c:	913ac000 	add	x0, x0, #0xeb0
   81520:	52802322 	mov	w2, #0x119                 	// #281
   81524:	97fffcc7 	bl	80840 <uspi_assertion_failed>
   81528:	f940be61 	ldr	x1, [x19, #376]
   8152c:	17ffffef 	b	814e8 <USPiGamePadAvailable+0x18>

0000000000081530 <USPiGamePadRegisterStatusHandler>:
   81530:	a9bd7bfd 	stp	x29, x30, [sp, #-48]!
   81534:	910003fd 	mov	x29, sp
   81538:	a90153f3 	stp	x19, x20, [sp, #16]
   8153c:	b00000f4 	adrp	x20, 9e000 <_ZZN8CGPIOPin20SetAlternateFunctionEjE11FunctionMap+0x420>
   81540:	f940be81 	ldr	x1, [x20, #376]
   81544:	f90013f5 	str	x21, [sp, #32]
   81548:	aa0003f5 	mov	x21, x0
   8154c:	b4000301 	cbz	x1, 815ac <USPiGamePadRegisterStatusHandler+0x7c>
   81550:	52800013 	mov	w19, #0x0                   	// #0
   81554:	8b334c20 	add	x0, x1, w19, uxtw #3
   81558:	aa1503e1 	mov	x1, x21
   8155c:	11000673 	add	w19, w19, #0x1
   81560:	f945b402 	ldr	x2, [x0, #2920]
   81564:	aa0203e0 	mov	x0, x2
   81568:	b4000042 	cbz	x2, 81570 <USPiGamePadRegisterStatusHandler+0x40>
   8156c:	94003af1 	bl	90130 <USBGamePadDeviceRegisterStatusHandler>
   81570:	7100127f 	cmp	w19, #0x4
   81574:	54000140 	b.eq	8159c <USPiGamePadRegisterStatusHandler+0x6c>  // b.none
   81578:	f940be81 	ldr	x1, [x20, #376]
   8157c:	8b334c20 	add	x0, x1, w19, uxtw #3
   81580:	aa1503e1 	mov	x1, x21
   81584:	11000673 	add	w19, w19, #0x1
   81588:	f945b402 	ldr	x2, [x0, #2920]
   8158c:	aa0203e0 	mov	x0, x2
   81590:	b5fffee2 	cbnz	x2, 8156c <USPiGamePadRegisterStatusHandler+0x3c>
   81594:	7100127f 	cmp	w19, #0x4
   81598:	54ffff01 	b.ne	81578 <USPiGamePadRegisterStatusHandler+0x48>  // b.any
   8159c:	a94153f3 	ldp	x19, x20, [sp, #16]
   815a0:	f94013f5 	ldr	x21, [sp, #32]
   815a4:	a8c37bfd 	ldp	x29, x30, [sp], #48
   815a8:	d65f03c0 	ret
   815ac:	900000c1 	adrp	x1, 99000 <_ZN8CGPIOPin7SetModeE9TGPIOModei+0x50>
   815b0:	900000c0 	adrp	x0, 99000 <_ZN8CGPIOPin7SetModeE9TGPIOModei+0x50>
   815b4:	913a4021 	add	x1, x1, #0xe90
   815b8:	913ac000 	add	x0, x0, #0xeb0
   815bc:	52802522 	mov	w2, #0x129                 	// #297
   815c0:	97fffca0 	bl	80840 <uspi_assertion_failed>
   815c4:	f940be81 	ldr	x1, [x20, #376]
   815c8:	17ffffe2 	b	81550 <USPiGamePadRegisterStatusHandler+0x20>
   815cc:	d503201f 	nop

00000000000815d0 <USPiGamePadGetStatus>:
   815d0:	a9be7bfd 	stp	x29, x30, [sp, #-32]!
   815d4:	910003fd 	mov	x29, sp
   815d8:	a90153f3 	stp	x19, x20, [sp, #16]
   815dc:	b00000f4 	adrp	x20, 9e000 <_ZZN8CGPIOPin20SetAlternateFunctionEjE11FunctionMap+0x420>
   815e0:	f940be81 	ldr	x1, [x20, #376]
   815e4:	2a0003f3 	mov	w19, w0
   815e8:	b40002a1 	cbz	x1, 8163c <USPiGamePadGetStatus+0x6c>
   815ec:	71000e7f 	cmp	w19, #0x3
   815f0:	540001e8 	b.hi	8162c <USPiGamePadGetStatus+0x5c>  // b.pmore
   815f4:	f940be80 	ldr	x0, [x20, #376]
   815f8:	d37d7e73 	ubfiz	x19, x19, #3, #32
   815fc:	912d8273 	add	x19, x19, #0xb60
   81600:	8b130000 	add	x0, x0, x19
   81604:	f9400400 	ldr	x0, [x0, #8]
   81608:	b4000120 	cbz	x0, 8162c <USPiGamePadGetStatus+0x5c>
   8160c:	94003ae5 	bl	901a0 <USBGamePadDeviceGetReport>
   81610:	f940be80 	ldr	x0, [x20, #376]
   81614:	8b130013 	add	x19, x0, x19
   81618:	f9400660 	ldr	x0, [x19, #8]
   8161c:	a94153f3 	ldp	x19, x20, [sp, #16]
   81620:	9100e000 	add	x0, x0, #0x38
   81624:	a8c27bfd 	ldp	x29, x30, [sp], #32
   81628:	d65f03c0 	ret
   8162c:	d2800000 	mov	x0, #0x0                   	// #0
   81630:	a94153f3 	ldp	x19, x20, [sp, #16]
   81634:	a8c27bfd 	ldp	x29, x30, [sp], #32
   81638:	d65f03c0 	ret
   8163c:	900000c1 	adrp	x1, 99000 <_ZN8CGPIOPin7SetModeE9TGPIOModei+0x50>
   81640:	900000c0 	adrp	x0, 99000 <_ZN8CGPIOPin7SetModeE9TGPIOModei+0x50>
   81644:	913a4021 	add	x1, x1, #0xe90
   81648:	913ac000 	add	x0, x0, #0xeb0
   8164c:	528026e2 	mov	w2, #0x137                 	// #311
   81650:	97fffc7c 	bl	80840 <uspi_assertion_failed>
   81654:	17ffffe6 	b	815ec <USPiGamePadGetStatus+0x1c>
   81658:	d503201f 	nop
   8165c:	d503201f 	nop

0000000000081660 <USPiMIDIAvailable>:
   81660:	a9be7bfd 	stp	x29, x30, [sp, #-32]!
   81664:	910003fd 	mov	x29, sp
   81668:	f9000bf3 	str	x19, [sp, #16]
   8166c:	b00000f3 	adrp	x19, 9e000 <_ZZN8CGPIOPin20SetAlternateFunctionEjE11FunctionMap+0x420>
   81670:	f940be60 	ldr	x0, [x19, #376]
   81674:	b40000e0 	cbz	x0, 81690 <USPiMIDIAvailable+0x30>
   81678:	f945c400 	ldr	x0, [x0, #2952]
   8167c:	f9400bf3 	ldr	x19, [sp, #16]
   81680:	f100001f 	cmp	x0, #0x0
   81684:	1a9f07e0 	cset	w0, ne  // ne = any
   81688:	a8c27bfd 	ldp	x29, x30, [sp], #32
   8168c:	d65f03c0 	ret
   81690:	528028c2 	mov	w2, #0x146                 	// #326
   81694:	900000c1 	adrp	x1, 99000 <_ZN8CGPIOPin7SetModeE9TGPIOModei+0x50>
   81698:	900000c0 	adrp	x0, 99000 <_ZN8CGPIOPin7SetModeE9TGPIOModei+0x50>
   8169c:	913a4021 	add	x1, x1, #0xe90
   816a0:	913ac000 	add	x0, x0, #0xeb0
   816a4:	97fffc67 	bl	80840 <uspi_assertion_failed>
   816a8:	f940be60 	ldr	x0, [x19, #376]
   816ac:	f9400bf3 	ldr	x19, [sp, #16]
   816b0:	f945c400 	ldr	x0, [x0, #2952]
   816b4:	a8c27bfd 	ldp	x29, x30, [sp], #32
   816b8:	f100001f 	cmp	x0, #0x0
   816bc:	1a9f07e0 	cset	w0, ne  // ne = any
   816c0:	d65f03c0 	ret
   816c4:	d503201f 	nop
   816c8:	d503201f 	nop
   816cc:	d503201f 	nop

00000000000816d0 <USPiMIDIRegisterPacketHandler>:
   816d0:	a9be7bfd 	stp	x29, x30, [sp, #-32]!
   816d4:	910003fd 	mov	x29, sp
   816d8:	a90153f3 	stp	x19, x20, [sp, #16]
   816dc:	b00000f3 	adrp	x19, 9e000 <_ZZN8CGPIOPin20SetAlternateFunctionEjE11FunctionMap+0x420>
   816e0:	f940be61 	ldr	x1, [x19, #376]
   816e4:	aa0003f4 	mov	x20, x0
   816e8:	b40000e1 	cbz	x1, 81704 <USPiMIDIRegisterPacketHandler+0x34>
   816ec:	f945c420 	ldr	x0, [x1, #2952]
   816f0:	b40001c0 	cbz	x0, 81728 <USPiMIDIRegisterPacketHandler+0x58>
   816f4:	aa1403e1 	mov	x1, x20
   816f8:	a94153f3 	ldp	x19, x20, [sp, #16]
   816fc:	a8c27bfd 	ldp	x29, x30, [sp], #32
   81700:	14003e54 	b	91050 <USBMIDIDeviceRegisterPacketHandler>
   81704:	900000c1 	adrp	x1, 99000 <_ZN8CGPIOPin7SetModeE9TGPIOModei+0x50>
   81708:	900000c0 	adrp	x0, 99000 <_ZN8CGPIOPin7SetModeE9TGPIOModei+0x50>
   8170c:	913a4021 	add	x1, x1, #0xe90
   81710:	913ac000 	add	x0, x0, #0xeb0
   81714:	52802982 	mov	w2, #0x14c                 	// #332
   81718:	97fffc4a 	bl	80840 <uspi_assertion_failed>
   8171c:	f940be61 	ldr	x1, [x19, #376]
   81720:	f945c420 	ldr	x0, [x1, #2952]
   81724:	b5fffe80 	cbnz	x0, 816f4 <USPiMIDIRegisterPacketHandler+0x24>
   81728:	528029a2 	mov	w2, #0x14d                 	// #333
   8172c:	900000c1 	adrp	x1, 99000 <_ZN8CGPIOPin7SetModeE9TGPIOModei+0x50>
   81730:	900000c0 	adrp	x0, 99000 <_ZN8CGPIOPin7SetModeE9TGPIOModei+0x50>
   81734:	913a4021 	add	x1, x1, #0xe90
   81738:	913e8000 	add	x0, x0, #0xfa0
   8173c:	97fffc41 	bl	80840 <uspi_assertion_failed>
   81740:	f940be60 	ldr	x0, [x19, #376]
   81744:	aa1403e1 	mov	x1, x20
   81748:	a94153f3 	ldp	x19, x20, [sp, #16]
   8174c:	a8c27bfd 	ldp	x29, x30, [sp], #32
   81750:	f945c400 	ldr	x0, [x0, #2952]
   81754:	14003e3f 	b	91050 <USBMIDIDeviceRegisterPacketHandler>
   81758:	d503201f 	nop
   8175c:	d503201f 	nop

0000000000081760 <USPiDeviceGetInformation>:
   81760:	a9bd7bfd 	stp	x29, x30, [sp, #-48]!
   81764:	910003fd 	mov	x29, sp
   81768:	a9025bf5 	stp	x21, x22, [sp, #32]
   8176c:	b00000f5 	adrp	x21, 9e000 <_ZZN8CGPIOPin20SetAlternateFunctionEjE11FunctionMap+0x420>
   81770:	f940bea3 	ldr	x3, [x21, #376]
   81774:	a90153f3 	stp	x19, x20, [sp, #16]
   81778:	2a0103f6 	mov	w22, w1
   8177c:	2a0003f3 	mov	w19, w0
   81780:	aa0203f4 	mov	x20, x2
   81784:	b4000743 	cbz	x3, 8186c <USPiDeviceGetInformation+0x10c>
   81788:	71000e7f 	cmp	w19, #0x3
   8178c:	54000820 	b.eq	81890 <USPiDeviceGetInformation+0x130>  // b.none
   81790:	54000169 	b.ls	817bc <USPiDeviceGetInformation+0x5c>  // b.plast
   81794:	7100167f 	cmp	w19, #0x5
   81798:	540008a0 	b.eq	818ac <USPiDeviceGetInformation+0x14c>  // b.none
   8179c:	52800001 	mov	w1, #0x0                   	// #0
   817a0:	54000943 	b.cc	818c8 <USPiDeviceGetInformation+0x168>  // b.lo, b.ul, b.last
   817a4:	71001a7f 	cmp	w19, #0x6
   817a8:	54000581 	b.ne	81858 <USPiDeviceGetInformation+0xf8>  // b.any
   817ac:	35000576 	cbnz	w22, 81858 <USPiDeviceGetInformation+0xf8>
   817b0:	f940bea0 	ldr	x0, [x21, #376]
   817b4:	f945c400 	ldr	x0, [x0, #2952]
   817b8:	1400000a 	b	817e0 <USPiDeviceGetInformation+0x80>
   817bc:	52800001 	mov	w1, #0x0                   	// #0
   817c0:	7100067f 	cmp	w19, #0x1
   817c4:	540008e0 	b.eq	818e0 <USPiDeviceGetInformation+0x180>  // b.none
   817c8:	71000a7f 	cmp	w19, #0x2
   817cc:	54000461 	b.ne	81858 <USPiDeviceGetInformation+0xf8>  // b.any
   817d0:	35000456 	cbnz	w22, 81858 <USPiDeviceGetInformation+0xf8>
   817d4:	f940bea0 	ldr	x0, [x21, #376]
   817d8:	f9459800 	ldr	x0, [x0, #2864]
   817dc:	d503201f 	nop
   817e0:	52800001 	mov	w1, #0x0                   	// #0
   817e4:	b40003a0 	cbz	x0, 81858 <USPiDeviceGetInformation+0xf8>
   817e8:	94001fb2 	bl	896b0 <USBFunctionGetDevice>
   817ec:	aa0003f3 	mov	x19, x0
   817f0:	b4000800 	cbz	x0, 818f0 <USPiDeviceGetInformation+0x190>
   817f4:	aa1303e0 	mov	x0, x19
   817f8:	940012aa 	bl	862a0 <USBDeviceGetDeviceDescriptor>
   817fc:	aa0003f5 	mov	x21, x0
   81800:	b5000100 	cbnz	x0, 81820 <USPiDeviceGetInformation+0xc0>
   81804:	900000c1 	adrp	x1, 99000 <_ZN8CGPIOPin7SetModeE9TGPIOModei+0x50>
   81808:	900000c0 	adrp	x0, 99000 <_ZN8CGPIOPin7SetModeE9TGPIOModei+0x50>
   8180c:	913a4021 	add	x1, x1, #0xe90
   81810:	913f2000 	add	x0, x0, #0xfc8
   81814:	528032e2 	mov	w2, #0x197                 	// #407
   81818:	97fffc0a 	bl	80840 <uspi_assertion_failed>
   8181c:	d503201f 	nop
   81820:	b4000774 	cbz	x20, 8190c <USPiDeviceGetInformation+0x1ac>
   81824:	79401aa1 	ldrh	w1, [x21, #12]
   81828:	9100e260 	add	x0, x19, #0x38
   8182c:	794012a3 	ldrh	w3, [x21, #8]
   81830:	794016a2 	ldrh	w2, [x21, #10]
   81834:	79000283 	strh	w3, [x20]
   81838:	79000682 	strh	w2, [x20, #2]
   8183c:	79000a81 	strh	w1, [x20, #4]
   81840:	94003c0c 	bl	90870 <USBStringGet>
   81844:	f9000680 	str	x0, [x20, #8]
   81848:	91014260 	add	x0, x19, #0x50
   8184c:	94003c09 	bl	90870 <USBStringGet>
   81850:	f9000a80 	str	x0, [x20, #16]
   81854:	52800021 	mov	w1, #0x1                   	// #1
   81858:	2a0103e0 	mov	w0, w1
   8185c:	a94153f3 	ldp	x19, x20, [sp, #16]
   81860:	a9425bf5 	ldp	x21, x22, [sp, #32]
   81864:	a8c37bfd 	ldp	x29, x30, [sp], #48
   81868:	d65f03c0 	ret
   8186c:	900000c1 	adrp	x1, 99000 <_ZN8CGPIOPin7SetModeE9TGPIOModei+0x50>
   81870:	900000c0 	adrp	x0, 99000 <_ZN8CGPIOPin7SetModeE9TGPIOModei+0x50>
   81874:	913a4021 	add	x1, x1, #0xe90
   81878:	913ac000 	add	x0, x0, #0xeb0
   8187c:	52802a62 	mov	w2, #0x153                 	// #339
   81880:	97fffbf0 	bl	80840 <uspi_assertion_failed>
   81884:	71000e7f 	cmp	w19, #0x3
   81888:	54fff841 	b.ne	81790 <USPiDeviceGetInformation+0x30>  // b.any
   8188c:	d503201f 	nop
   81890:	71000edf 	cmp	w22, #0x3
   81894:	52800001 	mov	w1, #0x0                   	// #0
   81898:	54fffe08 	b.hi	81858 <USPiDeviceGetInformation+0xf8>  // b.pmore
   8189c:	f940bea0 	ldr	x0, [x21, #376]
   818a0:	8b364c16 	add	x22, x0, w22, uxtw #3
   818a4:	f9459ec0 	ldr	x0, [x22, #2872]
   818a8:	17ffffce 	b	817e0 <USPiDeviceGetInformation+0x80>
   818ac:	71000edf 	cmp	w22, #0x3
   818b0:	52800001 	mov	w1, #0x0                   	// #0
   818b4:	54fffd28 	b.hi	81858 <USPiDeviceGetInformation+0xf8>  // b.pmore
   818b8:	f940bea0 	ldr	x0, [x21, #376]
   818bc:	8b364c16 	add	x22, x0, w22, uxtw #3
   818c0:	f945b6c0 	ldr	x0, [x22, #2920]
   818c4:	17ffffc7 	b	817e0 <USPiDeviceGetInformation+0x80>
   818c8:	35fffc96 	cbnz	w22, 81858 <USPiDeviceGetInformation+0xf8>
   818cc:	f940bea1 	ldr	x1, [x21, #376]
   818d0:	f945b020 	ldr	x0, [x1, #2912]
   818d4:	b5fff8a0 	cbnz	x0, 817e8 <USPiDeviceGetInformation+0x88>
   818d8:	f945ac20 	ldr	x0, [x1, #2904]
   818dc:	17ffffc1 	b	817e0 <USPiDeviceGetInformation+0x80>
   818e0:	35fffbd6 	cbnz	w22, 81858 <USPiDeviceGetInformation+0xf8>
   818e4:	f940bea0 	ldr	x0, [x21, #376]
   818e8:	f9459400 	ldr	x0, [x0, #2856]
   818ec:	17ffffbd 	b	817e0 <USPiDeviceGetInformation+0x80>
   818f0:	900000c1 	adrp	x1, 99000 <_ZN8CGPIOPin7SetModeE9TGPIOModei+0x50>
   818f4:	900000c0 	adrp	x0, 99000 <_ZN8CGPIOPin7SetModeE9TGPIOModei+0x50>
   818f8:	913a4021 	add	x1, x1, #0xe90
   818fc:	913ee000 	add	x0, x0, #0xfb8
   81900:	52803282 	mov	w2, #0x194                 	// #404
   81904:	97fffbcf 	bl	80840 <uspi_assertion_failed>
   81908:	17ffffbb 	b	817f4 <USPiDeviceGetInformation+0x94>
   8190c:	900000c1 	adrp	x1, 99000 <_ZN8CGPIOPin7SetModeE9TGPIOModei+0x50>
   81910:	900000c0 	adrp	x0, 99000 <_ZN8CGPIOPin7SetModeE9TGPIOModei+0x50>
   81914:	913a4021 	add	x1, x1, #0xe90
   81918:	913f6000 	add	x0, x0, #0xfd8
   8191c:	52803322 	mov	w2, #0x199                 	// #409
   81920:	97fffbc8 	bl	80840 <uspi_assertion_failed>
   81924:	17ffffc0 	b	81824 <USPiDeviceGetInformation+0xc4>
	...

0000000000081930 <DWHCIDeviceCompletionRoutine>:
   81930:	a9be7bfd 	stp	x29, x30, [sp, #-32]!
   81934:	910003fd 	mov	x29, sp
   81938:	f9000bf3 	str	x19, [sp, #16]
   8193c:	aa0203f3 	mov	x19, x2
   81940:	b40000a2 	cbz	x2, 81954 <DWHCIDeviceCompletionRoutine+0x24>
   81944:	b90b0a7f 	str	wzr, [x19, #2824]
   81948:	f9400bf3 	ldr	x19, [sp, #16]
   8194c:	a8c27bfd 	ldp	x29, x30, [sp], #32
   81950:	d65f03c0 	ret
   81954:	52805b42 	mov	w2, #0x2da                 	// #730
   81958:	b00000c1 	adrp	x1, 9a000 <CSWTCH.1+0x10>
   8195c:	b00000c0 	adrp	x0, 9a000 <CSWTCH.1+0x10>
   81960:	91000021 	add	x1, x1, #0x0
   81964:	91004000 	add	x0, x0, #0x10
   81968:	97fffbb6 	bl	80840 <uspi_assertion_failed>
   8196c:	b90b0a7f 	str	wzr, [x19, #2824]
   81970:	f9400bf3 	ldr	x19, [sp, #16]
   81974:	a8c27bfd 	ldp	x29, x30, [sp], #32
   81978:	d65f03c0 	ret
   8197c:	d503201f 	nop

0000000000081980 <DWHCIDevice>:
   81980:	a9be7bfd 	stp	x29, x30, [sp, #-32]!
   81984:	910003fd 	mov	x29, sp
   81988:	f9000bf3 	str	x19, [sp, #16]
   8198c:	aa0003f3 	mov	x19, x0
   81990:	b4000120 	cbz	x0, 819b4 <DWHCIDevice+0x34>
   81994:	b900067f 	str	wzr, [x19, #4]
   81998:	aa1303e1 	mov	x1, x19
   8199c:	b900027f 	str	wzr, [x19]
   819a0:	912c4260 	add	x0, x19, #0xb10
   819a4:	b90b0a7f 	str	wzr, [x19, #2824]
   819a8:	f9400bf3 	ldr	x19, [sp, #16]
   819ac:	a8c27bfd 	ldp	x29, x30, [sp], #32
   819b0:	140033bc 	b	8e8a0 <DWHCIRootPort>
   819b4:	52800be2 	mov	w2, #0x5f                  	// #95
   819b8:	b00000c1 	adrp	x1, 9a000 <CSWTCH.1+0x10>
   819bc:	b00000c0 	adrp	x0, 9a000 <CSWTCH.1+0x10>
   819c0:	91000021 	add	x1, x1, #0x0
   819c4:	91004000 	add	x0, x0, #0x10
   819c8:	97fffb9e 	bl	80840 <uspi_assertion_failed>
   819cc:	b900067f 	str	wzr, [x19, #4]
   819d0:	aa1303e1 	mov	x1, x19
   819d4:	b900027f 	str	wzr, [x19]
   819d8:	912c4260 	add	x0, x19, #0xb10
   819dc:	b90b0a7f 	str	wzr, [x19, #2824]
   819e0:	f9400bf3 	ldr	x19, [sp, #16]
   819e4:	a8c27bfd 	ldp	x29, x30, [sp], #32
   819e8:	140033ae 	b	8e8a0 <DWHCIRootPort>
   819ec:	d503201f 	nop

00000000000819f0 <_DWHCIDevice>:
   819f0:	912c4000 	add	x0, x0, #0xb10
   819f4:	140033c7 	b	8e910 <_DWHCIRootPort>
   819f8:	d503201f 	nop
   819fc:	d503201f 	nop

0000000000081a00 <DWHCIDeviceEnableGlobalInterrupts>:
   81a00:	a9bd7bfd 	stp	x29, x30, [sp, #-48]!
   81a04:	910003fd 	mov	x29, sp
   81a08:	b4000200 	cbz	x0, 81a48 <DWHCIDeviceEnableGlobalInterrupts+0x48>
   81a0c:	d2800101 	mov	x1, #0x8                   	// #8
   81a10:	f2a7f301 	movk	x1, #0x3f98, lsl #16
   81a14:	910063e0 	add	x0, sp, #0x18
   81a18:	94000a32 	bl	842e0 <DWHCIRegister>
   81a1c:	910063e0 	add	x0, sp, #0x18
   81a20:	94000a7c 	bl	84410 <DWHCIRegisterRead>
   81a24:	52800021 	mov	w1, #0x1                   	// #1
   81a28:	910063e0 	add	x0, sp, #0x18
   81a2c:	94000b2d 	bl	846e0 <DWHCIRegisterOr>
   81a30:	910063e0 	add	x0, sp, #0x18
   81a34:	94000a8f 	bl	84470 <DWHCIRegisterWrite>
   81a38:	910063e0 	add	x0, sp, #0x18
   81a3c:	94000a61 	bl	843c0 <_DWHCIRegister>
   81a40:	a8c37bfd 	ldp	x29, x30, [sp], #48
   81a44:	d65f03c0 	ret
   81a48:	b00000c1 	adrp	x1, 9a000 <CSWTCH.1+0x10>
   81a4c:	b00000c0 	adrp	x0, 9a000 <CSWTCH.1+0x10>
   81a50:	91000021 	add	x1, x1, #0x0
   81a54:	91004000 	add	x0, x0, #0x10
   81a58:	528047e2 	mov	w2, #0x23f                 	// #575
   81a5c:	97fffb79 	bl	80840 <uspi_assertion_failed>
   81a60:	17ffffeb 	b	81a0c <DWHCIDeviceEnableGlobalInterrupts+0xc>
   81a64:	d503201f 	nop
   81a68:	d503201f 	nop
   81a6c:	d503201f 	nop

0000000000081a70 <DWHCIDeviceEnableCommonInterrupts>:
   81a70:	a9bd7bfd 	stp	x29, x30, [sp, #-48]!
   81a74:	910003fd 	mov	x29, sp
   81a78:	b40001a0 	cbz	x0, 81aac <DWHCIDeviceEnableCommonInterrupts+0x3c>
   81a7c:	d2800281 	mov	x1, #0x14                  	// #20
   81a80:	f2a7f301 	movk	x1, #0x3f98, lsl #16
   81a84:	910063e0 	add	x0, sp, #0x18
   81a88:	94000a16 	bl	842e0 <DWHCIRegister>
   81a8c:	910063e0 	add	x0, sp, #0x18
   81a90:	94000bb0 	bl	84950 <DWHCIRegisterSetAll>
   81a94:	910063e0 	add	x0, sp, #0x18
   81a98:	94000a76 	bl	84470 <DWHCIRegisterWrite>
   81a9c:	910063e0 	add	x0, sp, #0x18
   81aa0:	94000a48 	bl	843c0 <_DWHCIRegister>
   81aa4:	a8c37bfd 	ldp	x29, x30, [sp], #48
   81aa8:	d65f03c0 	ret
   81aac:	b00000c1 	adrp	x1, 9a000 <CSWTCH.1+0x10>
   81ab0:	b00000c0 	adrp	x0, 9a000 <CSWTCH.1+0x10>
   81ab4:	91000021 	add	x1, x1, #0x0
   81ab8:	91004000 	add	x0, x0, #0x10
   81abc:	52804982 	mov	w2, #0x24c                 	// #588
   81ac0:	97fffb60 	bl	80840 <uspi_assertion_failed>
   81ac4:	17ffffee 	b	81a7c <DWHCIDeviceEnableCommonInterrupts+0xc>
   81ac8:	d503201f 	nop
   81acc:	d503201f 	nop

0000000000081ad0 <DWHCIDeviceEnableHostInterrupts>:
   81ad0:	a9bc7bfd 	stp	x29, x30, [sp, #-64]!
   81ad4:	910003fd 	mov	x29, sp
   81ad8:	f9000bf3 	str	x19, [sp, #16]
   81adc:	aa0003f3 	mov	x19, x0
   81ae0:	b40002c0 	cbz	x0, 81b38 <DWHCIDeviceEnableHostInterrupts+0x68>
   81ae4:	52800002 	mov	w2, #0x0                   	// #0
   81ae8:	d2800301 	mov	x1, #0x18                  	// #24
   81aec:	f2a7f301 	movk	x1, #0x3f98, lsl #16
   81af0:	9100a3e0 	add	x0, sp, #0x28
   81af4:	94000a13 	bl	84340 <DWHCIRegister2>
   81af8:	9100a3e0 	add	x0, sp, #0x28
   81afc:	94000a5d 	bl	84470 <DWHCIRegisterWrite>
   81b00:	aa1303e0 	mov	x0, x19
   81b04:	97ffffdb 	bl	81a70 <DWHCIDeviceEnableCommonInterrupts>
   81b08:	9100a3e0 	add	x0, sp, #0x28
   81b0c:	94000a41 	bl	84410 <DWHCIRegisterRead>
   81b10:	52a04001 	mov	w1, #0x2000000             	// #33554432
   81b14:	9100a3e0 	add	x0, sp, #0x28
   81b18:	94000af2 	bl	846e0 <DWHCIRegisterOr>
   81b1c:	9100a3e0 	add	x0, sp, #0x28
   81b20:	94000a54 	bl	84470 <DWHCIRegisterWrite>
   81b24:	9100a3e0 	add	x0, sp, #0x28
   81b28:	94000a26 	bl	843c0 <_DWHCIRegister>
   81b2c:	f9400bf3 	ldr	x19, [sp, #16]
   81b30:	a8c47bfd 	ldp	x29, x30, [sp], #64
   81b34:	d65f03c0 	ret
   81b38:	b00000c1 	adrp	x1, 9a000 <CSWTCH.1+0x10>
   81b3c:	b00000c0 	adrp	x0, 9a000 <CSWTCH.1+0x10>
   81b40:	91000021 	add	x1, x1, #0x0
   81b44:	91004000 	add	x0, x0, #0x10
   81b48:	52804c82 	mov	w2, #0x264                 	// #612
   81b4c:	97fffb3d 	bl	80840 <uspi_assertion_failed>
   81b50:	17ffffe5 	b	81ae4 <DWHCIDeviceEnableHostInterrupts+0x14>
   81b54:	d503201f 	nop
   81b58:	d503201f 	nop
   81b5c:	d503201f 	nop

0000000000081b60 <DWHCIDeviceEnableChannelInterrupt>:
   81b60:	a9bc7bfd 	stp	x29, x30, [sp, #-64]!
   81b64:	910003fd 	mov	x29, sp
   81b68:	f9000bf3 	str	x19, [sp, #16]
   81b6c:	2a0103f3 	mov	w19, w1
   81b70:	b4000280 	cbz	x0, 81bc0 <DWHCIDeviceEnableChannelInterrupt+0x60>
   81b74:	9100a3e0 	add	x0, sp, #0x28
   81b78:	d2808301 	mov	x1, #0x418                 	// #1048
   81b7c:	f2a7f301 	movk	x1, #0x3f98, lsl #16
   81b80:	940009d8 	bl	842e0 <DWHCIRegister>
   81b84:	940039a7 	bl	90220 <uspi_EnterCritical>
   81b88:	9100a3e0 	add	x0, sp, #0x28
   81b8c:	94000a21 	bl	84410 <DWHCIRegisterRead>
   81b90:	52800021 	mov	w1, #0x1                   	// #1
   81b94:	9100a3e0 	add	x0, sp, #0x28
   81b98:	1ad32021 	lsl	w1, w1, w19
   81b9c:	94000ad1 	bl	846e0 <DWHCIRegisterOr>
   81ba0:	9100a3e0 	add	x0, sp, #0x28
   81ba4:	94000a33 	bl	84470 <DWHCIRegisterWrite>
   81ba8:	940039ae 	bl	90260 <uspi_LeaveCritical>
   81bac:	9100a3e0 	add	x0, sp, #0x28
   81bb0:	94000a04 	bl	843c0 <_DWHCIRegister>
   81bb4:	f9400bf3 	ldr	x19, [sp, #16]
   81bb8:	a8c47bfd 	ldp	x29, x30, [sp], #64
   81bbc:	d65f03c0 	ret
   81bc0:	b00000c1 	adrp	x1, 9a000 <CSWTCH.1+0x10>
   81bc4:	b00000c0 	adrp	x0, 9a000 <CSWTCH.1+0x10>
   81bc8:	91000021 	add	x1, x1, #0x0
   81bcc:	91004000 	add	x0, x0, #0x10
   81bd0:	52804f02 	mov	w2, #0x278                 	// #632
   81bd4:	97fffb1b 	bl	80840 <uspi_assertion_failed>
   81bd8:	17ffffe7 	b	81b74 <DWHCIDeviceEnableChannelInterrupt+0x14>
   81bdc:	d503201f 	nop

0000000000081be0 <DWHCIDeviceDisableChannelInterrupt>:
   81be0:	a9bc7bfd 	stp	x29, x30, [sp, #-64]!
   81be4:	910003fd 	mov	x29, sp
   81be8:	f9000bf3 	str	x19, [sp, #16]
   81bec:	2a0103f3 	mov	w19, w1
   81bf0:	b40002a0 	cbz	x0, 81c44 <DWHCIDeviceDisableChannelInterrupt+0x64>
   81bf4:	9100a3e0 	add	x0, sp, #0x28
   81bf8:	d2808301 	mov	x1, #0x418                 	// #1048
   81bfc:	f2a7f301 	movk	x1, #0x3f98, lsl #16
   81c00:	940009b8 	bl	842e0 <DWHCIRegister>
   81c04:	94003987 	bl	90220 <uspi_EnterCritical>
   81c08:	9100a3e0 	add	x0, sp, #0x28
   81c0c:	94000a01 	bl	84410 <DWHCIRegisterRead>
   81c10:	52800021 	mov	w1, #0x1                   	// #1
   81c14:	9100a3e0 	add	x0, sp, #0x28
   81c18:	1ad32021 	lsl	w1, w1, w19
   81c1c:	2a2103e1 	mvn	w1, w1
   81c20:	94000a8c 	bl	84650 <DWHCIRegisterAnd>
   81c24:	9100a3e0 	add	x0, sp, #0x28
   81c28:	94000a12 	bl	84470 <DWHCIRegisterWrite>
   81c2c:	9400398d 	bl	90260 <uspi_LeaveCritical>
   81c30:	9100a3e0 	add	x0, sp, #0x28
   81c34:	940009e3 	bl	843c0 <_DWHCIRegister>
   81c38:	f9400bf3 	ldr	x19, [sp, #16]
   81c3c:	a8c47bfd 	ldp	x29, x30, [sp], #64
   81c40:	d65f03c0 	ret
   81c44:	b00000c1 	adrp	x1, 9a000 <CSWTCH.1+0x10>
   81c48:	b00000c0 	adrp	x0, 9a000 <CSWTCH.1+0x10>
   81c4c:	91000021 	add	x1, x1, #0x0
   81c50:	91004000 	add	x0, x0, #0x10
   81c54:	52805142 	mov	w2, #0x28a                 	// #650
   81c58:	97fffafa 	bl	80840 <uspi_assertion_failed>
   81c5c:	17ffffe6 	b	81bf4 <DWHCIDeviceDisableChannelInterrupt+0x14>

0000000000081c60 <DWHCIDeviceStartChannel>:
   81c60:	a9b47bfd 	stp	x29, x30, [sp, #-192]!
   81c64:	910003fd 	mov	x29, sp
   81c68:	a90153f3 	stp	x19, x20, [sp, #16]
   81c6c:	aa0103f3 	mov	x19, x1
   81c70:	f90013f5 	str	x21, [sp, #32]
   81c74:	aa0003f5 	mov	x21, x0
   81c78:	b4001be0 	cbz	x0, 81ff4 <DWHCIDeviceStartChannel+0x394>
   81c7c:	b4001cb3 	cbz	x19, 82010 <DWHCIDeviceStartChannel+0x3b0>
   81c80:	aa1303e0 	mov	x0, x19
   81c84:	94000c5f 	bl	84e00 <DWHCITransferStageDataGetChannelNumber>
   81c88:	2a0003f4 	mov	w20, w0
   81c8c:	b94002a0 	ldr	w0, [x21]
   81c90:	6b14001f 	cmp	w0, w20
   81c94:	54001a29 	b.ls	81fd8 <DWHCIDeviceStartChannel+0x378>  // b.plast
   81c98:	531b6a94 	lsl	w20, w20, #5
   81c9c:	aa1303e0 	mov	x0, x19
   81ca0:	52800021 	mov	w1, #0x1                   	// #1
   81ca4:	94000c2b 	bl	84d50 <DWHCITransferStageDataSetSubState>
   81ca8:	5280a101 	mov	w1, #0x508                 	// #1288
   81cac:	72a7f301 	movk	w1, #0x3f98, lsl #16
   81cb0:	0b010281 	add	w1, w20, w1
   81cb4:	9100c3e0 	add	x0, sp, #0x30
   81cb8:	9400098a 	bl	842e0 <DWHCIRegister>
   81cbc:	9100c3e0 	add	x0, sp, #0x30
   81cc0:	94000b24 	bl	84950 <DWHCIRegisterSetAll>
   81cc4:	9100c3e0 	add	x0, sp, #0x30
   81cc8:	940009ea 	bl	84470 <DWHCIRegisterWrite>
   81ccc:	5280a201 	mov	w1, #0x510                 	// #1296
   81cd0:	72a7f301 	movk	w1, #0x3f98, lsl #16
   81cd4:	0b010281 	add	w1, w20, w1
   81cd8:	52800002 	mov	w2, #0x0                   	// #0
   81cdc:	910123e0 	add	x0, sp, #0x48
   81ce0:	94000998 	bl	84340 <DWHCIRegister2>
   81ce4:	aa1303e0 	mov	x0, x19
   81ce8:	94000e2a 	bl	85590 <DWHCITransferStageDataGetBytesToTransfer>
   81cec:	12004801 	and	w1, w0, #0x7ffff
   81cf0:	910123e0 	add	x0, sp, #0x48
   81cf4:	94000a7b 	bl	846e0 <DWHCIRegisterOr>
   81cf8:	aa1303e0 	mov	x0, x19
   81cfc:	94000e39 	bl	855e0 <DWHCITransferStageDataGetPacketsToTransfer>
   81d00:	530d2401 	ubfiz	w1, w0, #19, #10
   81d04:	910123e0 	add	x0, sp, #0x48
   81d08:	94000a76 	bl	846e0 <DWHCIRegisterOr>
   81d0c:	aa1303e0 	mov	x0, x19
   81d10:	94000db0 	bl	853d0 <DWHCITransferStageDataGetPID>
   81d14:	53030801 	lsl	w1, w0, #29
   81d18:	910123e0 	add	x0, sp, #0x48
   81d1c:	94000a71 	bl	846e0 <DWHCIRegisterOr>
   81d20:	910123e0 	add	x0, sp, #0x48
   81d24:	940009d3 	bl	84470 <DWHCIRegisterWrite>
   81d28:	aa1303e0 	mov	x0, x19
   81d2c:	94000dfd 	bl	85520 <DWHCITransferStageDataGetDMAAddress>
   81d30:	5280a281 	mov	w1, #0x514                 	// #1300
   81d34:	72a7f301 	movk	w1, #0x3f98, lsl #16
   81d38:	32020402 	orr	w2, w0, #0xc0000000
   81d3c:	0b010281 	add	w1, w20, w1
   81d40:	910183e0 	add	x0, sp, #0x60
   81d44:	9400097f 	bl	84340 <DWHCIRegister2>
   81d48:	910183e0 	add	x0, sp, #0x60
   81d4c:	940009c9 	bl	84470 <DWHCIRegisterWrite>
   81d50:	aa1303e0 	mov	x0, x19
   81d54:	94000df3 	bl	85520 <DWHCITransferStageDataGetDMAAddress>
   81d58:	2a0003f5 	mov	w21, w0
   81d5c:	aa1303e0 	mov	x0, x19
   81d60:	94000e0c 	bl	85590 <DWHCITransferStageDataGetBytesToTransfer>
   81d64:	2a0003e1 	mov	w1, w0
   81d68:	2a1503e0 	mov	w0, w21
   81d6c:	94003959 	bl	902d0 <uspi_CleanAndInvalidateDataCacheRange>
   81d70:	d5033fbf 	dmb	sy
   81d74:	5280a081 	mov	w1, #0x504                 	// #1284
   81d78:	72a7f301 	movk	w1, #0x3f98, lsl #16
   81d7c:	0b010281 	add	w1, w20, w1
   81d80:	52800002 	mov	w2, #0x0                   	// #0
   81d84:	9101e3e0 	add	x0, sp, #0x78
   81d88:	9400096e 	bl	84340 <DWHCIRegister2>
   81d8c:	aa1303e0 	mov	x0, x19
   81d90:	94000e28 	bl	85630 <DWHCITransferStageDataIsSplit>
   81d94:	35000f60 	cbnz	w0, 81f80 <DWHCIDeviceStartChannel+0x320>
   81d98:	9101e3e0 	add	x0, sp, #0x78
   81d9c:	940009b5 	bl	84470 <DWHCIRegisterWrite>
   81da0:	5280a001 	mov	w1, #0x500                 	// #1280
   81da4:	72a7f301 	movk	w1, #0x3f98, lsl #16
   81da8:	0b010281 	add	w1, w20, w1
   81dac:	910243e0 	add	x0, sp, #0x90
   81db0:	9400094c 	bl	842e0 <DWHCIRegister>
   81db4:	910243e0 	add	x0, sp, #0x90
   81db8:	94000996 	bl	84410 <DWHCIRegisterRead>
   81dbc:	1280ffe1 	mov	w1, #0xfffff800            	// #-2048
   81dc0:	910243e0 	add	x0, sp, #0x90
   81dc4:	94000a23 	bl	84650 <DWHCIRegisterAnd>
   81dc8:	aa1303e0 	mov	x0, x19
   81dcc:	94000d59 	bl	85330 <DWHCITransferStageDataGetMaxPacketSize>
   81dd0:	12002801 	and	w1, w0, #0x7ff
   81dd4:	910243e0 	add	x0, sp, #0x90
   81dd8:	94000a42 	bl	846e0 <DWHCIRegisterOr>
   81ddc:	910243e0 	add	x0, sp, #0x90
   81de0:	12a00601 	mov	w1, #0xffcfffff            	// #-3145729
   81de4:	94000a1b 	bl	84650 <DWHCIRegisterAnd>
   81de8:	52a00201 	mov	w1, #0x100000              	// #1048576
   81dec:	910243e0 	add	x0, sp, #0x90
   81df0:	94000a3c 	bl	846e0 <DWHCIRegisterOr>
   81df4:	aa1303e0 	mov	x0, x19
   81df8:	94000da2 	bl	85480 <DWHCITransferStageDataIsDirectionIn>
   81dfc:	35000a60 	cbnz	w0, 81f48 <DWHCIDeviceStartChannel+0x2e8>
   81e00:	12900001 	mov	w1, #0xffff7fff            	// #-32769
   81e04:	910243e0 	add	x0, sp, #0x90
   81e08:	94000a12 	bl	84650 <DWHCIRegisterAnd>
   81e0c:	aa1303e0 	mov	x0, x19
   81e10:	94000d5c 	bl	85380 <DWHCITransferStageDataGetSpeed>
   81e14:	35000a60 	cbnz	w0, 81f60 <DWHCIDeviceStartChannel+0x300>
   81e18:	52a00041 	mov	w1, #0x20000               	// #131072
   81e1c:	910243e0 	add	x0, sp, #0x90
   81e20:	94000a30 	bl	846e0 <DWHCIRegisterOr>
   81e24:	12a3f801 	mov	w1, #0xe03fffff            	// #-532676609
   81e28:	910243e0 	add	x0, sp, #0x90
   81e2c:	94000a09 	bl	84650 <DWHCIRegisterAnd>
   81e30:	aa1303e0 	mov	x0, x19
   81e34:	94000cdb 	bl	851a0 <DWHCITransferStageDataGetDeviceAddress>
   81e38:	530a1c01 	ubfiz	w1, w0, #22, #8
   81e3c:	910243e0 	add	x0, sp, #0x90
   81e40:	94000a28 	bl	846e0 <DWHCIRegisterOr>
   81e44:	12a00181 	mov	w1, #0xfff3ffff            	// #-786433
   81e48:	910243e0 	add	x0, sp, #0x90
   81e4c:	94000a01 	bl	84650 <DWHCIRegisterAnd>
   81e50:	aa1303e0 	mov	x0, x19
   81e54:	94000cef 	bl	85210 <DWHCITransferStageDataGetEndpointType>
   81e58:	530e1c01 	ubfiz	w1, w0, #18, #8
   81e5c:	910243e0 	add	x0, sp, #0x90
   81e60:	94000a20 	bl	846e0 <DWHCIRegisterOr>
   81e64:	128f0001 	mov	w1, #0xffff87ff            	// #-30721
   81e68:	910243e0 	add	x0, sp, #0x90
   81e6c:	940009f9 	bl	84650 <DWHCIRegisterAnd>
   81e70:	aa1303e0 	mov	x0, x19
   81e74:	94000d13 	bl	852c0 <DWHCITransferStageDataGetEndpointNumber>
   81e78:	53151c01 	ubfiz	w1, w0, #11, #8
   81e7c:	910243e0 	add	x0, sp, #0x90
   81e80:	94000a18 	bl	846e0 <DWHCIRegisterOr>
   81e84:	aa1303e0 	mov	x0, x19
   81e88:	94000ef6 	bl	85a60 <DWHCITransferStageDataGetFrameScheduler>
   81e8c:	aa0003f5 	mov	x21, x0
   81e90:	b4000140 	cbz	x0, 81eb8 <DWHCIDeviceStartChannel+0x258>
   81e94:	f9401001 	ldr	x1, [x0, #32]
   81e98:	d63f0020 	blr	x1
   81e9c:	f94016a1 	ldr	x1, [x21, #40]
   81ea0:	aa1503e0 	mov	x0, x21
   81ea4:	d63f0020 	blr	x1
   81ea8:	34000640 	cbz	w0, 81f70 <DWHCIDeviceStartChannel+0x310>
   81eac:	52a40001 	mov	w1, #0x20000000            	// #536870912
   81eb0:	910243e0 	add	x0, sp, #0x90
   81eb4:	94000a0b 	bl	846e0 <DWHCIRegisterOr>
   81eb8:	5280a181 	mov	w1, #0x50c                 	// #1292
   81ebc:	72a7f301 	movk	w1, #0x3f98, lsl #16
   81ec0:	0b010281 	add	w1, w20, w1
   81ec4:	9102a3e0 	add	x0, sp, #0xa8
   81ec8:	94000906 	bl	842e0 <DWHCIRegister>
   81ecc:	aa1303e0 	mov	x0, x19
   81ed0:	94000e5c 	bl	85840 <DWHCITransferStageDataGetStatusMask>
   81ed4:	2a0003e1 	mov	w1, w0
   81ed8:	9102a3e0 	add	x0, sp, #0xa8
   81edc:	940009a1 	bl	84560 <DWHCIRegisterSet>
   81ee0:	9102a3e0 	add	x0, sp, #0xa8
   81ee4:	94000963 	bl	84470 <DWHCIRegisterWrite>
   81ee8:	910243e0 	add	x0, sp, #0x90
   81eec:	52b00001 	mov	w1, #0x80000000            	// #-2147483648
   81ef0:	940009fc 	bl	846e0 <DWHCIRegisterOr>
   81ef4:	12a80001 	mov	w1, #0xbfffffff            	// #-1073741825
   81ef8:	910243e0 	add	x0, sp, #0x90
   81efc:	940009d5 	bl	84650 <DWHCIRegisterAnd>
   81f00:	910243e0 	add	x0, sp, #0x90
   81f04:	9400095b 	bl	84470 <DWHCIRegisterWrite>
   81f08:	9102a3e0 	add	x0, sp, #0xa8
   81f0c:	9400092d 	bl	843c0 <_DWHCIRegister>
   81f10:	910243e0 	add	x0, sp, #0x90
   81f14:	9400092b 	bl	843c0 <_DWHCIRegister>
   81f18:	9101e3e0 	add	x0, sp, #0x78
   81f1c:	94000929 	bl	843c0 <_DWHCIRegister>
   81f20:	910183e0 	add	x0, sp, #0x60
   81f24:	94000927 	bl	843c0 <_DWHCIRegister>
   81f28:	910123e0 	add	x0, sp, #0x48
   81f2c:	94000925 	bl	843c0 <_DWHCIRegister>
   81f30:	9100c3e0 	add	x0, sp, #0x30
   81f34:	94000923 	bl	843c0 <_DWHCIRegister>
   81f38:	a94153f3 	ldp	x19, x20, [sp, #16]
   81f3c:	f94013f5 	ldr	x21, [sp, #32]
   81f40:	a8cc7bfd 	ldp	x29, x30, [sp], #192
   81f44:	d65f03c0 	ret
   81f48:	52900001 	mov	w1, #0x8000                	// #32768
   81f4c:	910243e0 	add	x0, sp, #0x90
   81f50:	940009e4 	bl	846e0 <DWHCIRegisterOr>
   81f54:	aa1303e0 	mov	x0, x19
   81f58:	94000d0a 	bl	85380 <DWHCITransferStageDataGetSpeed>
   81f5c:	34fff5e0 	cbz	w0, 81e18 <DWHCIDeviceStartChannel+0x1b8>
   81f60:	12a00041 	mov	w1, #0xfffdffff            	// #-131073
   81f64:	910243e0 	add	x0, sp, #0x90
   81f68:	940009ba 	bl	84650 <DWHCIRegisterAnd>
   81f6c:	17ffffae 	b	81e24 <DWHCIDeviceStartChannel+0x1c4>
   81f70:	12a40001 	mov	w1, #0xdfffffff            	// #-536870913
   81f74:	910243e0 	add	x0, sp, #0x90
   81f78:	940009b6 	bl	84650 <DWHCIRegisterAnd>
   81f7c:	17ffffcf 	b	81eb8 <DWHCIDeviceStartChannel+0x258>
   81f80:	aa1303e0 	mov	x0, x19
   81f84:	94000e03 	bl	85790 <DWHCITransferStageDataGetHubPortAddress>
   81f88:	12001c01 	and	w1, w0, #0xff
   81f8c:	9101e3e0 	add	x0, sp, #0x78
   81f90:	940009d4 	bl	846e0 <DWHCIRegisterOr>
   81f94:	aa1303e0 	mov	x0, x19
   81f98:	94000dd6 	bl	856f0 <DWHCITransferStageDataGetHubAddress>
   81f9c:	53191c01 	ubfiz	w1, w0, #7, #8
   81fa0:	9101e3e0 	add	x0, sp, #0x78
   81fa4:	940009cf 	bl	846e0 <DWHCIRegisterOr>
   81fa8:	aa1303e0 	mov	x0, x19
   81fac:	94000e21 	bl	85830 <DWHCITransferStageDataGetSplitPosition>
   81fb0:	53121c01 	ubfiz	w1, w0, #14, #8
   81fb4:	9101e3e0 	add	x0, sp, #0x78
   81fb8:	940009ca 	bl	846e0 <DWHCIRegisterOr>
   81fbc:	aa1303e0 	mov	x0, x19
   81fc0:	94000db0 	bl	85680 <DWHCITransferStageDataIsSplitComplete>
   81fc4:	35000340 	cbnz	w0, 8202c <DWHCIDeviceStartChannel+0x3cc>
   81fc8:	52b00001 	mov	w1, #0x80000000            	// #-2147483648
   81fcc:	9101e3e0 	add	x0, sp, #0x78
   81fd0:	940009c4 	bl	846e0 <DWHCIRegisterOr>
   81fd4:	17ffff71 	b	81d98 <DWHCIDeviceStartChannel+0x138>
   81fd8:	b00000c1 	adrp	x1, 9a000 <CSWTCH.1+0x10>
   81fdc:	b00000c0 	adrp	x0, 9a000 <CSWTCH.1+0x10>
   81fe0:	91000021 	add	x1, x1, #0x0
   81fe4:	9100c000 	add	x0, x0, #0x30
   81fe8:	528066e2 	mov	w2, #0x337                 	// #823
   81fec:	97fffa15 	bl	80840 <uspi_assertion_failed>
   81ff0:	17ffff2a 	b	81c98 <DWHCIDeviceStartChannel+0x38>
   81ff4:	b00000c1 	adrp	x1, 9a000 <CSWTCH.1+0x10>
   81ff8:	b00000c0 	adrp	x0, 9a000 <CSWTCH.1+0x10>
   81ffc:	91000021 	add	x1, x1, #0x0
   82000:	91004000 	add	x0, x0, #0x10
   82004:	52806662 	mov	w2, #0x333                 	// #819
   82008:	97fffa0e 	bl	80840 <uspi_assertion_failed>
   8200c:	b5ffe3b3 	cbnz	x19, 81c80 <DWHCIDeviceStartChannel+0x20>
   82010:	900000c1 	adrp	x1, 9a000 <CSWTCH.1+0x10>
   82014:	900000c0 	adrp	x0, 9a000 <CSWTCH.1+0x10>
   82018:	91000021 	add	x1, x1, #0x0
   8201c:	91008000 	add	x0, x0, #0x20
   82020:	528066a2 	mov	w2, #0x335                 	// #821
   82024:	97fffa07 	bl	80840 <uspi_assertion_failed>
   82028:	17ffff16 	b	81c80 <DWHCIDeviceStartChannel+0x20>
   8202c:	52a00021 	mov	w1, #0x10000               	// #65536
   82030:	9101e3e0 	add	x0, sp, #0x78
   82034:	940009ab 	bl	846e0 <DWHCIRegisterOr>
   82038:	17ffffe4 	b	81fc8 <DWHCIDeviceStartChannel+0x368>
   8203c:	d503201f 	nop

0000000000082040 <DWHCIDeviceStartTransaction>:
   82040:	a9ba7bfd 	stp	x29, x30, [sp, #-96]!
   82044:	910003fd 	mov	x29, sp
   82048:	a90153f3 	stp	x19, x20, [sp, #16]
   8204c:	aa0103f4 	mov	x20, x1
   82050:	f90013f5 	str	x21, [sp, #32]
   82054:	aa0003f5 	mov	x21, x0
   82058:	b4000800 	cbz	x0, 82158 <DWHCIDeviceStartTransaction+0x118>
   8205c:	b40008f4 	cbz	x20, 82178 <DWHCIDeviceStartTransaction+0x138>
   82060:	aa1403e0 	mov	x0, x20
   82064:	94000b67 	bl	84e00 <DWHCITransferStageDataGetChannelNumber>
   82068:	2a0003f3 	mov	w19, w0
   8206c:	b94002a0 	ldr	w0, [x21]
   82070:	6b13001f 	cmp	w0, w19
   82074:	54000649 	b.ls	8213c <DWHCIDeviceStartTransaction+0xfc>  // b.plast
   82078:	52980501 	mov	w1, #0xc028                	// #49192
   8207c:	72a03f81 	movk	w1, #0x1fc, lsl #16
   82080:	0b010273 	add	w19, w19, w1
   82084:	9100c3e0 	add	x0, sp, #0x30
   82088:	531b6a61 	lsl	w1, w19, #5
   8208c:	aa0103f3 	mov	x19, x1
   82090:	94000894 	bl	842e0 <DWHCIRegister>
   82094:	9100c3e0 	add	x0, sp, #0x30
   82098:	940008de 	bl	84410 <DWHCIRegisterRead>
   8209c:	9100c3e0 	add	x0, sp, #0x30
   820a0:	52b00001 	mov	w1, #0x80000000            	// #-2147483648
   820a4:	94000947 	bl	845c0 <DWHCIRegisterIsSet>
   820a8:	35000140 	cbnz	w0, 820d0 <DWHCIDeviceStartTransaction+0x90>
   820ac:	aa1403e1 	mov	x1, x20
   820b0:	aa1503e0 	mov	x0, x21
   820b4:	97fffeeb 	bl	81c60 <DWHCIDeviceStartChannel>
   820b8:	9100c3e0 	add	x0, sp, #0x30
   820bc:	940008c1 	bl	843c0 <_DWHCIRegister>
   820c0:	a94153f3 	ldp	x19, x20, [sp, #16]
   820c4:	f94013f5 	ldr	x21, [sp, #32]
   820c8:	a8c67bfd 	ldp	x29, x30, [sp], #96
   820cc:	d65f03c0 	ret
   820d0:	aa1403e0 	mov	x0, x20
   820d4:	52800001 	mov	w1, #0x0                   	// #0
   820d8:	94000b1e 	bl	84d50 <DWHCITransferStageDataSetSubState>
   820dc:	9100c3e0 	add	x0, sp, #0x30
   820e0:	12b00001 	mov	w1, #0x7fffffff            	// #2147483647
   820e4:	9400095b 	bl	84650 <DWHCIRegisterAnd>
   820e8:	52a80001 	mov	w1, #0x40000000            	// #1073741824
   820ec:	9100c3e0 	add	x0, sp, #0x30
   820f0:	9400097c 	bl	846e0 <DWHCIRegisterOr>
   820f4:	9100c3e0 	add	x0, sp, #0x30
   820f8:	940008de 	bl	84470 <DWHCIRegisterWrite>
   820fc:	11003261 	add	w1, w19, #0xc
   82100:	910123e0 	add	x0, sp, #0x48
   82104:	94000877 	bl	842e0 <DWHCIRegister>
   82108:	52800041 	mov	w1, #0x2                   	// #2
   8210c:	910123e0 	add	x0, sp, #0x48
   82110:	94000914 	bl	84560 <DWHCIRegisterSet>
   82114:	910123e0 	add	x0, sp, #0x48
   82118:	940008d6 	bl	84470 <DWHCIRegisterWrite>
   8211c:	910123e0 	add	x0, sp, #0x48
   82120:	940008a8 	bl	843c0 <_DWHCIRegister>
   82124:	9100c3e0 	add	x0, sp, #0x30
   82128:	940008a6 	bl	843c0 <_DWHCIRegister>
   8212c:	a94153f3 	ldp	x19, x20, [sp, #16]
   82130:	f94013f5 	ldr	x21, [sp, #32]
   82134:	a8c67bfd 	ldp	x29, x30, [sp], #96
   82138:	d65f03c0 	ret
   8213c:	900000c1 	adrp	x1, 9a000 <CSWTCH.1+0x10>
   82140:	900000c0 	adrp	x0, 9a000 <CSWTCH.1+0x10>
   82144:	91000021 	add	x1, x1, #0x0
   82148:	9100c000 	add	x0, x0, #0x30
   8214c:	52806282 	mov	w2, #0x314                 	// #788
   82150:	97fff9bc 	bl	80840 <uspi_assertion_failed>
   82154:	17ffffc9 	b	82078 <DWHCIDeviceStartTransaction+0x38>
   82158:	900000c1 	adrp	x1, 9a000 <CSWTCH.1+0x10>
   8215c:	900000c0 	adrp	x0, 9a000 <CSWTCH.1+0x10>
   82160:	91000021 	add	x1, x1, #0x0
   82164:	91004000 	add	x0, x0, #0x10
   82168:	52806202 	mov	w2, #0x310                 	// #784
   8216c:	97fff9b5 	bl	80840 <uspi_assertion_failed>
   82170:	b5fff794 	cbnz	x20, 82060 <DWHCIDeviceStartTransaction+0x20>
   82174:	d503201f 	nop
   82178:	900000c1 	adrp	x1, 9a000 <CSWTCH.1+0x10>
   8217c:	900000c0 	adrp	x0, 9a000 <CSWTCH.1+0x10>
   82180:	91000021 	add	x1, x1, #0x0
   82184:	91008000 	add	x0, x0, #0x20
   82188:	52806242 	mov	w2, #0x312                 	// #786
   8218c:	97fff9ad 	bl	80840 <uspi_assertion_failed>
   82190:	17ffffb4 	b	82060 <DWHCIDeviceStartTransaction+0x20>
   82194:	d503201f 	nop
   82198:	d503201f 	nop
   8219c:	d503201f 	nop

00000000000821a0 <DWHCIDeviceTimerHandler>:
   821a0:	a9bd7bfd 	stp	x29, x30, [sp, #-48]!
   821a4:	910003fd 	mov	x29, sp
   821a8:	a90153f3 	stp	x19, x20, [sp, #16]
   821ac:	aa0103f3 	mov	x19, x1
   821b0:	aa0203f4 	mov	x20, x2
   821b4:	b4000622 	cbz	x2, 82278 <DWHCIDeviceTimerHandler+0xd8>
   821b8:	b4000713 	cbz	x19, 82298 <DWHCIDeviceTimerHandler+0xf8>
   821bc:	d5033fbf 	dmb	sy
   821c0:	b40007d3 	cbz	x19, 822b8 <DWHCIDeviceTimerHandler+0x118>
   821c4:	aa1303e0 	mov	x0, x19
   821c8:	94000ace 	bl	84d00 <DWHCITransferStageDataGetState>
   821cc:	71000c1f 	cmp	w0, #0x3
   821d0:	540000e0 	b.eq	821ec <DWHCIDeviceTimerHandler+0x4c>  // b.none
   821d4:	900000c1 	adrp	x1, 9a000 <CSWTCH.1+0x10>
   821d8:	900000c0 	adrp	x0, 9a000 <CSWTCH.1+0x10>
   821dc:	91000021 	add	x1, x1, #0x0
   821e0:	91014000 	add	x0, x0, #0x50
   821e4:	528098a2 	mov	w2, #0x4c5                 	// #1221
   821e8:	97fff996 	bl	80840 <uspi_assertion_failed>
   821ec:	aa1303e0 	mov	x0, x19
   821f0:	94000d10 	bl	85630 <DWHCITransferStageDataIsSplit>
   821f4:	340002e0 	cbz	w0, 82250 <DWHCIDeviceTimerHandler+0xb0>
   821f8:	52800021 	mov	w1, #0x1                   	// #1
   821fc:	aa1303e0 	mov	x0, x19
   82200:	f90013f5 	str	x21, [sp, #32]
   82204:	94000aab 	bl	84cb0 <DWHCITransferStageDataSetState>
   82208:	52800001 	mov	w1, #0x0                   	// #0
   8220c:	aa1303e0 	mov	x0, x19
   82210:	94000a88 	bl	84c30 <DWHCITransferStageDataSetSplitComplete>
   82214:	aa1303e0 	mov	x0, x19
   82218:	94000e12 	bl	85a60 <DWHCITransferStageDataGetFrameScheduler>
   8221c:	aa0003f5 	mov	x21, x0
   82220:	b40005a0 	cbz	x0, 822d4 <DWHCIDeviceTimerHandler+0x134>
   82224:	f94006a1 	ldr	x1, [x21, #8]
   82228:	aa1503e0 	mov	x0, x21
   8222c:	d63f0020 	blr	x1
   82230:	aa1303e1 	mov	x1, x19
   82234:	aa1403e0 	mov	x0, x20
   82238:	f94013f5 	ldr	x21, [sp, #32]
   8223c:	97ffff81 	bl	82040 <DWHCIDeviceStartTransaction>
   82240:	d5033fbf 	dmb	sy
   82244:	a94153f3 	ldp	x19, x20, [sp, #16]
   82248:	a8c37bfd 	ldp	x29, x30, [sp], #48
   8224c:	d65f03c0 	ret
   82250:	aa1303e0 	mov	x0, x19
   82254:	52800001 	mov	w1, #0x0                   	// #0
   82258:	94000a96 	bl	84cb0 <DWHCITransferStageDataSetState>
   8225c:	aa1303e1 	mov	x1, x19
   82260:	aa1403e0 	mov	x0, x20
   82264:	97ffff77 	bl	82040 <DWHCIDeviceStartTransaction>
   82268:	d5033fbf 	dmb	sy
   8226c:	a94153f3 	ldp	x19, x20, [sp, #16]
   82270:	a8c37bfd 	ldp	x29, x30, [sp], #48
   82274:	d65f03c0 	ret
   82278:	900000c1 	adrp	x1, 9a000 <CSWTCH.1+0x10>
   8227c:	900000c0 	adrp	x0, 9a000 <CSWTCH.1+0x10>
   82280:	91000021 	add	x1, x1, #0x0
   82284:	91004000 	add	x0, x0, #0x10
   82288:	528097a2 	mov	w2, #0x4bd                 	// #1213
   8228c:	97fff96d 	bl	80840 <uspi_assertion_failed>
   82290:	b5fff973 	cbnz	x19, 821bc <DWHCIDeviceTimerHandler+0x1c>
   82294:	d503201f 	nop
   82298:	52809802 	mov	w2, #0x4c0                 	// #1216
   8229c:	900000c1 	adrp	x1, 9a000 <CSWTCH.1+0x10>
   822a0:	900000c0 	adrp	x0, 9a000 <CSWTCH.1+0x10>
   822a4:	91000021 	add	x1, x1, #0x0
   822a8:	91008000 	add	x0, x0, #0x20
   822ac:	97fff965 	bl	80840 <uspi_assertion_failed>
   822b0:	d5033fbf 	dmb	sy
   822b4:	b5fff893 	cbnz	x19, 821c4 <DWHCIDeviceTimerHandler+0x24>
   822b8:	900000c1 	adrp	x1, 9a000 <CSWTCH.1+0x10>
   822bc:	900000c0 	adrp	x0, 9a000 <CSWTCH.1+0x10>
   822c0:	91000021 	add	x1, x1, #0x0
   822c4:	91008000 	add	x0, x0, #0x20
   822c8:	52809882 	mov	w2, #0x4c4                 	// #1220
   822cc:	97fff95d 	bl	80840 <uspi_assertion_failed>
   822d0:	17ffffbd 	b	821c4 <DWHCIDeviceTimerHandler+0x24>
   822d4:	900000c1 	adrp	x1, 9a000 <CSWTCH.1+0x10>
   822d8:	900000c0 	adrp	x0, 9a000 <CSWTCH.1+0x10>
   822dc:	91000021 	add	x1, x1, #0x0
   822e0:	91026000 	add	x0, x0, #0x98
   822e4:	528099c2 	mov	w2, #0x4ce                 	// #1230
   822e8:	97fff956 	bl	80840 <uspi_assertion_failed>
   822ec:	17ffffce 	b	82224 <DWHCIDeviceTimerHandler+0x84>

00000000000822f0 <DWHCIDeviceAllocateChannel>:
   822f0:	a9be7bfd 	stp	x29, x30, [sp, #-32]!
   822f4:	910003fd 	mov	x29, sp
   822f8:	a90153f3 	stp	x19, x20, [sp, #16]
   822fc:	aa0003f4 	mov	x20, x0
   82300:	b40003e0 	cbz	x0, 8237c <DWHCIDeviceAllocateChannel+0x8c>
   82304:	940037c7 	bl	90220 <uspi_EnterCritical>
   82308:	b9400282 	ldr	w2, [x20]
   8230c:	340001a2 	cbz	w2, 82340 <DWHCIDeviceAllocateChannel+0x50>
   82310:	b9400680 	ldr	w0, [x20, #4]
   82314:	52800013 	mov	w19, #0x0                   	// #0
   82318:	12000001 	and	w1, w0, #0x1
   8231c:	370000a0 	tbnz	w0, #0, 82330 <DWHCIDeviceAllocateChannel+0x40>
   82320:	1400000e 	b	82358 <DWHCIDeviceAllocateChannel+0x68>
   82324:	b9400680 	ldr	w0, [x20, #4]
   82328:	6a01001f 	tst	w0, w1
   8232c:	54000180 	b.eq	8235c <DWHCIDeviceAllocateChannel+0x6c>  // b.none
   82330:	11000673 	add	w19, w19, #0x1
   82334:	0b010021 	add	w1, w1, w1
   82338:	6b02027f 	cmp	w19, w2
   8233c:	54ffff41 	b.ne	82324 <DWHCIDeviceAllocateChannel+0x34>  // b.any
   82340:	940037c8 	bl	90260 <uspi_LeaveCritical>
   82344:	52800213 	mov	w19, #0x10                  	// #16
   82348:	2a1303e0 	mov	w0, w19
   8234c:	a94153f3 	ldp	x19, x20, [sp, #16]
   82350:	a8c27bfd 	ldp	x29, x30, [sp], #32
   82354:	d65f03c0 	ret
   82358:	52800021 	mov	w1, #0x1                   	// #1
   8235c:	b9400680 	ldr	w0, [x20, #4]
   82360:	2a010001 	orr	w1, w0, w1
   82364:	b9000681 	str	w1, [x20, #4]
   82368:	940037be 	bl	90260 <uspi_LeaveCritical>
   8236c:	2a1303e0 	mov	w0, w19
   82370:	a94153f3 	ldp	x19, x20, [sp, #16]
   82374:	a8c27bfd 	ldp	x29, x30, [sp], #32
   82378:	d65f03c0 	ret
   8237c:	900000c1 	adrp	x1, 9a000 <CSWTCH.1+0x10>
   82380:	900000c0 	adrp	x0, 9a000 <CSWTCH.1+0x10>
   82384:	91000021 	add	x1, x1, #0x0
   82388:	91004000 	add	x0, x0, #0x10
   8238c:	52809ba2 	mov	w2, #0x4dd                 	// #1245
   82390:	97fff92c 	bl	80840 <uspi_assertion_failed>
   82394:	17ffffdc 	b	82304 <DWHCIDeviceAllocateChannel+0x14>
   82398:	d503201f 	nop
   8239c:	d503201f 	nop

00000000000823a0 <DWHCIDeviceFreeChannel>:
   823a0:	a9bd7bfd 	stp	x29, x30, [sp, #-48]!
   823a4:	910003fd 	mov	x29, sp
   823a8:	a90153f3 	stp	x19, x20, [sp, #16]
   823ac:	aa0003f4 	mov	x20, x0
   823b0:	f90013f5 	str	x21, [sp, #32]
   823b4:	2a0103f5 	mov	w21, w1
   823b8:	b4000540 	cbz	x0, 82460 <DWHCIDeviceFreeChannel+0xc0>
   823bc:	b9400280 	ldr	w0, [x20]
   823c0:	6b15001f 	cmp	w0, w21
   823c4:	540001c9 	b.ls	823fc <DWHCIDeviceFreeChannel+0x5c>  // b.plast
   823c8:	94003796 	bl	90220 <uspi_EnterCritical>
   823cc:	52800033 	mov	w19, #0x1                   	// #1
   823d0:	b9400680 	ldr	w0, [x20, #4]
   823d4:	1ad52273 	lsl	w19, w19, w21
   823d8:	6a13001f 	tst	w0, w19
   823dc:	54000280 	b.eq	8242c <DWHCIDeviceFreeChannel+0x8c>  // b.none
   823e0:	b9400680 	ldr	w0, [x20, #4]
   823e4:	f94013f5 	ldr	x21, [sp, #32]
   823e8:	0a330013 	bic	w19, w0, w19
   823ec:	b9000693 	str	w19, [x20, #4]
   823f0:	a94153f3 	ldp	x19, x20, [sp, #16]
   823f4:	a8c37bfd 	ldp	x29, x30, [sp], #48
   823f8:	1400379a 	b	90260 <uspi_LeaveCritical>
   823fc:	900000c1 	adrp	x1, 9a000 <CSWTCH.1+0x10>
   82400:	900000c0 	adrp	x0, 9a000 <CSWTCH.1+0x10>
   82404:	91000021 	add	x1, x1, #0x0
   82408:	9100c000 	add	x0, x0, #0x30
   8240c:	52809f22 	mov	w2, #0x4f9                 	// #1273
   82410:	97fff90c 	bl	80840 <uspi_assertion_failed>
   82414:	52800033 	mov	w19, #0x1                   	// #1
   82418:	94003782 	bl	90220 <uspi_EnterCritical>
   8241c:	1ad52273 	lsl	w19, w19, w21
   82420:	b9400680 	ldr	w0, [x20, #4]
   82424:	6a13001f 	tst	w0, w19
   82428:	54fffdc1 	b.ne	823e0 <DWHCIDeviceFreeChannel+0x40>  // b.any
   8242c:	52809fc2 	mov	w2, #0x4fe                 	// #1278
   82430:	900000c1 	adrp	x1, 9a000 <CSWTCH.1+0x10>
   82434:	900000c0 	adrp	x0, 9a000 <CSWTCH.1+0x10>
   82438:	91000021 	add	x1, x1, #0x0
   8243c:	9102c000 	add	x0, x0, #0xb0
   82440:	97fff900 	bl	80840 <uspi_assertion_failed>
   82444:	b9400680 	ldr	w0, [x20, #4]
   82448:	f94013f5 	ldr	x21, [sp, #32]
   8244c:	0a330013 	bic	w19, w0, w19
   82450:	b9000693 	str	w19, [x20, #4]
   82454:	a94153f3 	ldp	x19, x20, [sp, #16]
   82458:	a8c37bfd 	ldp	x29, x30, [sp], #48
   8245c:	14003781 	b	90260 <uspi_LeaveCritical>
   82460:	900000c1 	adrp	x1, 9a000 <CSWTCH.1+0x10>
   82464:	900000c0 	adrp	x0, 9a000 <CSWTCH.1+0x10>
   82468:	91000021 	add	x1, x1, #0x0
   8246c:	91004000 	add	x0, x0, #0x10
   82470:	52809ee2 	mov	w2, #0x4f7                 	// #1271
   82474:	97fff8f3 	bl	80840 <uspi_assertion_failed>
   82478:	17ffffd1 	b	823bc <DWHCIDeviceFreeChannel+0x1c>
   8247c:	d503201f 	nop

0000000000082480 <DWHCIDeviceTransferStageAsync>:
   82480:	a9bb7bfd 	stp	x29, x30, [sp, #-80]!
   82484:	910003fd 	mov	x29, sp
   82488:	a90153f3 	stp	x19, x20, [sp, #16]
   8248c:	aa0003f3 	mov	x19, x0
   82490:	a9025bf5 	stp	x21, x22, [sp, #32]
   82494:	a90363f7 	stp	x23, x24, [sp, #48]
   82498:	aa0103f7 	mov	x23, x1
   8249c:	2a0203f8 	mov	w24, w2
   824a0:	f90023f9 	str	x25, [sp, #64]
   824a4:	2a0303f9 	mov	w25, w3
   824a8:	b40007e0 	cbz	x0, 825a4 <DWHCIDeviceTransferStageAsync+0x124>
   824ac:	b40008b7 	cbz	x23, 825c0 <DWHCIDeviceTransferStageAsync+0x140>
   824b0:	aa1303e0 	mov	x0, x19
   824b4:	97ffff8f 	bl	822f0 <DWHCIDeviceAllocateChannel>
   824b8:	2a0003f5 	mov	w21, w0
   824bc:	b9400260 	ldr	w0, [x19]
   824c0:	52800016 	mov	w22, #0x0                   	// #0
   824c4:	6b15001f 	cmp	w0, w21
   824c8:	54000108 	b.hi	824e8 <DWHCIDeviceTransferStageAsync+0x68>  // b.pmore
   824cc:	2a1603e0 	mov	w0, w22
   824d0:	a94153f3 	ldp	x19, x20, [sp, #16]
   824d4:	a9425bf5 	ldp	x21, x22, [sp, #32]
   824d8:	a94363f7 	ldp	x23, x24, [sp, #48]
   824dc:	f94023f9 	ldr	x25, [sp, #64]
   824e0:	a8c57bfd 	ldp	x29, x30, [sp], #80
   824e4:	d65f03c0 	ret
   824e8:	52801614 	mov	w20, #0xb0                  	// #176
   824ec:	2a1903e4 	mov	w4, w25
   824f0:	2a1803e3 	mov	w3, w24
   824f4:	aa1703e2 	mov	x2, x23
   824f8:	9bb44eb4 	umaddl	x20, w21, w20, x19
   824fc:	2a1503e1 	mov	w1, w21
   82500:	91002294 	add	x20, x20, #0x8
   82504:	aa1403e0 	mov	x0, x20
   82508:	94000a76 	bl	84ee0 <DWHCITransferStageData>
   8250c:	2a1503e1 	mov	w1, w21
   82510:	aa1303e0 	mov	x0, x19
   82514:	97fffd93 	bl	81b60 <DWHCIDeviceEnableChannelInterrupt>
   82518:	aa1403e0 	mov	x0, x20
   8251c:	94000c45 	bl	85630 <DWHCITransferStageDataIsSplit>
   82520:	350001e0 	cbnz	w0, 8255c <DWHCIDeviceTransferStageAsync+0xdc>
   82524:	52800001 	mov	w1, #0x0                   	// #0
   82528:	aa1403e0 	mov	x0, x20
   8252c:	940009e1 	bl	84cb0 <DWHCITransferStageDataSetState>
   82530:	aa1403e1 	mov	x1, x20
   82534:	aa1303e0 	mov	x0, x19
   82538:	52800036 	mov	w22, #0x1                   	// #1
   8253c:	97fffec1 	bl	82040 <DWHCIDeviceStartTransaction>
   82540:	2a1603e0 	mov	w0, w22
   82544:	a94153f3 	ldp	x19, x20, [sp, #16]
   82548:	a9425bf5 	ldp	x21, x22, [sp, #32]
   8254c:	a94363f7 	ldp	x23, x24, [sp, #48]
   82550:	f94023f9 	ldr	x25, [sp, #64]
   82554:	a8c57bfd 	ldp	x29, x30, [sp], #80
   82558:	d65f03c0 	ret
   8255c:	aa1403e0 	mov	x0, x20
   82560:	94000a24 	bl	84df0 <DWHCITransferStageDataBeginSplitCycle>
   82564:	2a0003f6 	mov	w22, w0
   82568:	340003a0 	cbz	w0, 825dc <DWHCIDeviceTransferStageAsync+0x15c>
   8256c:	52800021 	mov	w1, #0x1                   	// #1
   82570:	aa1403e0 	mov	x0, x20
   82574:	940009cf 	bl	84cb0 <DWHCITransferStageDataSetState>
   82578:	52800001 	mov	w1, #0x0                   	// #0
   8257c:	aa1403e0 	mov	x0, x20
   82580:	940009ac 	bl	84c30 <DWHCITransferStageDataSetSplitComplete>
   82584:	aa1403e0 	mov	x0, x20
   82588:	94000d36 	bl	85a60 <DWHCITransferStageDataGetFrameScheduler>
   8258c:	aa0003f5 	mov	x21, x0
   82590:	b4000380 	cbz	x0, 82600 <DWHCIDeviceTransferStageAsync+0x180>
   82594:	f94006a1 	ldr	x1, [x21, #8]
   82598:	aa1503e0 	mov	x0, x21
   8259c:	d63f0020 	blr	x1
   825a0:	17ffffe4 	b	82530 <DWHCIDeviceTransferStageAsync+0xb0>
   825a4:	900000c1 	adrp	x1, 9a000 <CSWTCH.1+0x10>
   825a8:	900000c0 	adrp	x0, 9a000 <CSWTCH.1+0x10>
   825ac:	91000021 	add	x1, x1, #0x0
   825b0:	91004000 	add	x0, x0, #0x10
   825b4:	52805c22 	mov	w2, #0x2e1                 	// #737
   825b8:	97fff8a2 	bl	80840 <uspi_assertion_failed>
   825bc:	b5fff7b7 	cbnz	x23, 824b0 <DWHCIDeviceTransferStageAsync+0x30>
   825c0:	900000c1 	adrp	x1, 9a000 <CSWTCH.1+0x10>
   825c4:	900000c0 	adrp	x0, 9a000 <CSWTCH.1+0x10>
   825c8:	91000021 	add	x1, x1, #0x0
   825cc:	91038000 	add	x0, x0, #0xe0
   825d0:	52805c42 	mov	w2, #0x2e2                 	// #738
   825d4:	97fff89b 	bl	80840 <uspi_assertion_failed>
   825d8:	17ffffb6 	b	824b0 <DWHCIDeviceTransferStageAsync+0x30>
   825dc:	2a1503e1 	mov	w1, w21
   825e0:	aa1303e0 	mov	x0, x19
   825e4:	97fffd7f 	bl	81be0 <DWHCIDeviceDisableChannelInterrupt>
   825e8:	aa1403e0 	mov	x0, x20
   825ec:	94000919 	bl	84a50 <_DWHCITransferStageData>
   825f0:	2a1503e1 	mov	w1, w21
   825f4:	aa1303e0 	mov	x0, x19
   825f8:	97ffff6a 	bl	823a0 <DWHCIDeviceFreeChannel>
   825fc:	17ffffb4 	b	824cc <DWHCIDeviceTransferStageAsync+0x4c>
   82600:	900000c1 	adrp	x1, 9a000 <CSWTCH.1+0x10>
   82604:	900000c0 	adrp	x0, 9a000 <CSWTCH.1+0x10>
   82608:	91000021 	add	x1, x1, #0x0
   8260c:	91026000 	add	x0, x0, #0x98
   82610:	528060a2 	mov	w2, #0x305                 	// #773
   82614:	97fff88b 	bl	80840 <uspi_assertion_failed>
   82618:	17ffffdf 	b	82594 <DWHCIDeviceTransferStageAsync+0x114>
   8261c:	d503201f 	nop

0000000000082620 <DWHCIDeviceSubmitAsyncRequest>:
   82620:	a9be7bfd 	stp	x29, x30, [sp, #-32]!
   82624:	910003fd 	mov	x29, sp
   82628:	a90153f3 	stp	x19, x20, [sp, #16]
   8262c:	aa0003f4 	mov	x20, x0
   82630:	aa0103f3 	mov	x19, x1
   82634:	b40006c0 	cbz	x0, 8270c <DWHCIDeviceSubmitAsyncRequest+0xec>
   82638:	d5033fbf 	dmb	sy
   8263c:	b40005b3 	cbz	x19, 826f0 <DWHCIDeviceSubmitAsyncRequest+0xd0>
   82640:	aa1303e0 	mov	x0, x19
   82644:	94001543 	bl	87b50 <USBRequestGetEndpoint>
   82648:	9400140a 	bl	87670 <USBEndpointGetType>
   8264c:	7100041f 	cmp	w0, #0x1
   82650:	54000261 	b.ne	8269c <DWHCIDeviceSubmitAsyncRequest+0x7c>  // b.any
   82654:	aa1303e0 	mov	x0, x19
   82658:	940015f6 	bl	87e30 <USBRequestGetBufLen>
   8265c:	340003c0 	cbz	w0, 826d4 <DWHCIDeviceSubmitAsyncRequest+0xb4>
   82660:	52800001 	mov	w1, #0x0                   	// #0
   82664:	aa1303e0 	mov	x0, x19
   82668:	94001556 	bl	87bc0 <USBRequestSetStatus>
   8266c:	aa1303e0 	mov	x0, x19
   82670:	94001538 	bl	87b50 <USBRequestGetEndpoint>
   82674:	94001413 	bl	876c0 <USBEndpointIsDirectionIn>
   82678:	2a0003e2 	mov	w2, w0
   8267c:	aa1303e1 	mov	x1, x19
   82680:	aa1403e0 	mov	x0, x20
   82684:	52800003 	mov	w3, #0x0                   	// #0
   82688:	97ffff7e 	bl	82480 <DWHCIDeviceTransferStageAsync>
   8268c:	d5033fbf 	dmb	sy
   82690:	a94153f3 	ldp	x19, x20, [sp, #16]
   82694:	a8c27bfd 	ldp	x29, x30, [sp], #32
   82698:	d65f03c0 	ret
   8269c:	aa1303e0 	mov	x0, x19
   826a0:	9400152c 	bl	87b50 <USBRequestGetEndpoint>
   826a4:	940013f3 	bl	87670 <USBEndpointGetType>
   826a8:	7100081f 	cmp	w0, #0x2
   826ac:	54fffd40 	b.eq	82654 <DWHCIDeviceSubmitAsyncRequest+0x34>  // b.none
   826b0:	900000c1 	adrp	x1, 9a000 <CSWTCH.1+0x10>
   826b4:	91000021 	add	x1, x1, #0x0
   826b8:	52802b02 	mov	w2, #0x158                 	// #344
   826bc:	900000c0 	adrp	x0, 9a000 <CSWTCH.1+0x10>
   826c0:	9103c000 	add	x0, x0, #0xf0
   826c4:	97fff85f 	bl	80840 <uspi_assertion_failed>
   826c8:	aa1303e0 	mov	x0, x19
   826cc:	940015d9 	bl	87e30 <USBRequestGetBufLen>
   826d0:	35fffc80 	cbnz	w0, 82660 <DWHCIDeviceSubmitAsyncRequest+0x40>
   826d4:	900000c1 	adrp	x1, 9a000 <CSWTCH.1+0x10>
   826d8:	900000c0 	adrp	x0, 9a000 <CSWTCH.1+0x10>
   826dc:	91000021 	add	x1, x1, #0x0
   826e0:	91062000 	add	x0, x0, #0x188
   826e4:	52802b22 	mov	w2, #0x159                 	// #345
   826e8:	97fff856 	bl	80840 <uspi_assertion_failed>
   826ec:	17ffffdd 	b	82660 <DWHCIDeviceSubmitAsyncRequest+0x40>
   826f0:	900000c1 	adrp	x1, 9a000 <CSWTCH.1+0x10>
   826f4:	900000c0 	adrp	x0, 9a000 <CSWTCH.1+0x10>
   826f8:	91000021 	add	x1, x1, #0x0
   826fc:	91038000 	add	x0, x0, #0xe0
   82700:	52802ac2 	mov	w2, #0x156                 	// #342
   82704:	97fff84f 	bl	80840 <uspi_assertion_failed>
   82708:	17ffffce 	b	82640 <DWHCIDeviceSubmitAsyncRequest+0x20>
   8270c:	900000c1 	adrp	x1, 9a000 <CSWTCH.1+0x10>
   82710:	900000c0 	adrp	x0, 9a000 <CSWTCH.1+0x10>
   82714:	91000021 	add	x1, x1, #0x0
   82718:	91004000 	add	x0, x0, #0x10
   8271c:	52802a42 	mov	w2, #0x152                 	// #338
   82720:	97fff848 	bl	80840 <uspi_assertion_failed>
   82724:	17ffffc5 	b	82638 <DWHCIDeviceSubmitAsyncRequest+0x18>
   82728:	d503201f 	nop
   8272c:	d503201f 	nop

0000000000082730 <DWHCIDeviceTransferStage>:
   82730:	a9bd7bfd 	stp	x29, x30, [sp, #-48]!
   82734:	910003fd 	mov	x29, sp
   82738:	a90153f3 	stp	x19, x20, [sp, #16]
   8273c:	aa0003f3 	mov	x19, x0
   82740:	aa0103f4 	mov	x20, x1
   82744:	a9025bf5 	stp	x21, x22, [sp, #32]
   82748:	2a0203f5 	mov	w21, w2
   8274c:	2a0303f6 	mov	w22, w3
   82750:	b40004a0 	cbz	x0, 827e4 <DWHCIDeviceTransferStage+0xb4>
   82754:	b4000574 	cbz	x20, 82800 <DWHCIDeviceTransferStage+0xd0>
   82758:	aa1403e0 	mov	x0, x20
   8275c:	f0ffffe1 	adrp	x1, 81000 <USPiMassStorageDeviceRead+0x80>
   82760:	aa1303e3 	mov	x3, x19
   82764:	9124c021 	add	x1, x1, #0x930
   82768:	d2800002 	mov	x2, #0x0                   	// #0
   8276c:	940015c5 	bl	87e80 <USBRequestSetCompletionRoutine>
   82770:	b94b0a60 	ldr	w0, [x19, #2824]
   82774:	350002a0 	cbnz	w0, 827c8 <DWHCIDeviceTransferStage+0x98>
   82778:	52800020 	mov	w0, #0x1                   	// #1
   8277c:	b90b0a60 	str	w0, [x19, #2824]
   82780:	2a1603e3 	mov	w3, w22
   82784:	2a1503e2 	mov	w2, w21
   82788:	aa1403e1 	mov	x1, x20
   8278c:	aa1303e0 	mov	x0, x19
   82790:	97ffff3c 	bl	82480 <DWHCIDeviceTransferStageAsync>
   82794:	34000100 	cbz	w0, 827b4 <DWHCIDeviceTransferStage+0x84>
   82798:	b94b0a60 	ldr	w0, [x19, #2824]
   8279c:	35ffffe0 	cbnz	w0, 82798 <DWHCIDeviceTransferStage+0x68>
   827a0:	aa1403e0 	mov	x0, x20
   827a4:	a94153f3 	ldp	x19, x20, [sp, #16]
   827a8:	a9425bf5 	ldp	x21, x22, [sp, #32]
   827ac:	a8c37bfd 	ldp	x29, x30, [sp], #48
   827b0:	1400152c 	b	87c60 <USBRequestGetStatus>
   827b4:	a9425bf5 	ldp	x21, x22, [sp, #32]
   827b8:	b90b0a7f 	str	wzr, [x19, #2824]
   827bc:	a94153f3 	ldp	x19, x20, [sp, #16]
   827c0:	a8c37bfd 	ldp	x29, x30, [sp], #48
   827c4:	d65f03c0 	ret
   827c8:	900000c1 	adrp	x1, 9a000 <CSWTCH.1+0x10>
   827cc:	900000c0 	adrp	x0, 9a000 <CSWTCH.1+0x10>
   827d0:	91000021 	add	x1, x1, #0x0
   827d4:	9106a000 	add	x0, x0, #0x1a8
   827d8:	528058a2 	mov	w2, #0x2c5                 	// #709
   827dc:	97fff819 	bl	80840 <uspi_assertion_failed>
   827e0:	17ffffe6 	b	82778 <DWHCIDeviceTransferStage+0x48>
   827e4:	900000c1 	adrp	x1, 9a000 <CSWTCH.1+0x10>
   827e8:	900000c0 	adrp	x0, 9a000 <CSWTCH.1+0x10>
   827ec:	91000021 	add	x1, x1, #0x0
   827f0:	91004000 	add	x0, x0, #0x10
   827f4:	52805802 	mov	w2, #0x2c0                 	// #704
   827f8:	97fff812 	bl	80840 <uspi_assertion_failed>
   827fc:	b5fffaf4 	cbnz	x20, 82758 <DWHCIDeviceTransferStage+0x28>
   82800:	900000c1 	adrp	x1, 9a000 <CSWTCH.1+0x10>
   82804:	900000c0 	adrp	x0, 9a000 <CSWTCH.1+0x10>
   82808:	91000021 	add	x1, x1, #0x0
   8280c:	91038000 	add	x0, x0, #0xe0
   82810:	52805842 	mov	w2, #0x2c2                 	// #706
   82814:	97fff80b 	bl	80840 <uspi_assertion_failed>
   82818:	17ffffd0 	b	82758 <DWHCIDeviceTransferStage+0x28>
   8281c:	d503201f 	nop

0000000000082820 <DWHCIDeviceSubmitBlockingRequest>:
   82820:	a9bd7bfd 	stp	x29, x30, [sp, #-48]!
   82824:	910003fd 	mov	x29, sp
   82828:	a90153f3 	stp	x19, x20, [sp, #16]
   8282c:	aa0003f4 	mov	x20, x0
   82830:	aa0103f3 	mov	x19, x1
   82834:	b4000ec0 	cbz	x0, 82a0c <DWHCIDeviceSubmitBlockingRequest+0x1ec>
   82838:	d5033fbf 	dmb	sy
   8283c:	b4000fb3 	cbz	x19, 82a30 <DWHCIDeviceSubmitBlockingRequest+0x210>
   82840:	52800001 	mov	w1, #0x0                   	// #0
   82844:	aa1303e0 	mov	x0, x19
   82848:	940014de 	bl	87bc0 <USBRequestSetStatus>
   8284c:	aa1303e0 	mov	x0, x19
   82850:	940014c0 	bl	87b50 <USBRequestGetEndpoint>
   82854:	94001387 	bl	87670 <USBEndpointGetType>
   82858:	35000380 	cbnz	w0, 828c8 <DWHCIDeviceSubmitBlockingRequest+0xa8>
   8285c:	aa1303e0 	mov	x0, x19
   82860:	f90013f5 	str	x21, [sp, #32]
   82864:	9400152f 	bl	87d20 <USBRequestGetSetupData>
   82868:	aa0003f5 	mov	x21, x0
   8286c:	b4000f00 	cbz	x0, 82a4c <DWHCIDeviceSubmitBlockingRequest+0x22c>
   82870:	39c002a0 	ldrsb	w0, [x21]
   82874:	37f80600 	tbnz	w0, #31, 82934 <DWHCIDeviceSubmitBlockingRequest+0x114>
   82878:	aa1303e0 	mov	x0, x19
   8287c:	9400156d 	bl	87e30 <USBRequestGetBufLen>
   82880:	52800003 	mov	w3, #0x0                   	// #0
   82884:	52800002 	mov	w2, #0x0                   	// #0
   82888:	aa1303e1 	mov	x1, x19
   8288c:	340000e0 	cbz	w0, 828a8 <DWHCIDeviceSubmitBlockingRequest+0x88>
   82890:	aa1403e0 	mov	x0, x20
   82894:	97ffffa7 	bl	82730 <DWHCIDeviceTransferStage>
   82898:	340000e0 	cbz	w0, 828b4 <DWHCIDeviceSubmitBlockingRequest+0x94>
   8289c:	aa1303e1 	mov	x1, x19
   828a0:	52800003 	mov	w3, #0x0                   	// #0
   828a4:	52800002 	mov	w2, #0x0                   	// #0
   828a8:	aa1403e0 	mov	x0, x20
   828ac:	97ffffa1 	bl	82730 <DWHCIDeviceTransferStage>
   828b0:	35000900 	cbnz	w0, 829d0 <DWHCIDeviceSubmitBlockingRequest+0x1b0>
   828b4:	f94013f5 	ldr	x21, [sp, #32]
   828b8:	52800000 	mov	w0, #0x0                   	// #0
   828bc:	a94153f3 	ldp	x19, x20, [sp, #16]
   828c0:	a8c37bfd 	ldp	x29, x30, [sp], #48
   828c4:	d65f03c0 	ret
   828c8:	aa1303e0 	mov	x0, x19
   828cc:	940014a1 	bl	87b50 <USBRequestGetEndpoint>
   828d0:	94001368 	bl	87670 <USBEndpointGetType>
   828d4:	7100041f 	cmp	w0, #0x1
   828d8:	540000c0 	b.eq	828f0 <DWHCIDeviceSubmitBlockingRequest+0xd0>  // b.none
   828dc:	aa1303e0 	mov	x0, x19
   828e0:	9400149c 	bl	87b50 <USBRequestGetEndpoint>
   828e4:	94001363 	bl	87670 <USBEndpointGetType>
   828e8:	7100081f 	cmp	w0, #0x2
   828ec:	54000521 	b.ne	82990 <DWHCIDeviceSubmitBlockingRequest+0x170>  // b.any
   828f0:	aa1303e0 	mov	x0, x19
   828f4:	9400154f 	bl	87e30 <USBRequestGetBufLen>
   828f8:	340005e0 	cbz	w0, 829b4 <DWHCIDeviceSubmitBlockingRequest+0x194>
   828fc:	aa1303e0 	mov	x0, x19
   82900:	94001494 	bl	87b50 <USBRequestGetEndpoint>
   82904:	9400136f 	bl	876c0 <USBEndpointIsDirectionIn>
   82908:	2a0003e2 	mov	w2, w0
   8290c:	aa1303e1 	mov	x1, x19
   82910:	aa1403e0 	mov	x0, x20
   82914:	52800003 	mov	w3, #0x0                   	// #0
   82918:	97ffff86 	bl	82730 <DWHCIDeviceTransferStage>
   8291c:	34fffce0 	cbz	w0, 828b8 <DWHCIDeviceSubmitBlockingRequest+0x98>
   82920:	d5033fbf 	dmb	sy
   82924:	52800020 	mov	w0, #0x1                   	// #1
   82928:	a94153f3 	ldp	x19, x20, [sp, #16]
   8292c:	a8c37bfd 	ldp	x29, x30, [sp], #48
   82930:	d65f03c0 	ret
   82934:	aa1303e0 	mov	x0, x19
   82938:	9400153e 	bl	87e30 <USBRequestGetBufLen>
   8293c:	340005a0 	cbz	w0, 829f0 <DWHCIDeviceSubmitBlockingRequest+0x1d0>
   82940:	52800003 	mov	w3, #0x0                   	// #0
   82944:	52800002 	mov	w2, #0x0                   	// #0
   82948:	aa1303e1 	mov	x1, x19
   8294c:	aa1403e0 	mov	x0, x20
   82950:	97ffff78 	bl	82730 <DWHCIDeviceTransferStage>
   82954:	34fffb00 	cbz	w0, 828b4 <DWHCIDeviceSubmitBlockingRequest+0x94>
   82958:	52800003 	mov	w3, #0x0                   	// #0
   8295c:	52800022 	mov	w2, #0x1                   	// #1
   82960:	aa1303e1 	mov	x1, x19
   82964:	aa1403e0 	mov	x0, x20
   82968:	97ffff72 	bl	82730 <DWHCIDeviceTransferStage>
   8296c:	34fffa40 	cbz	w0, 828b4 <DWHCIDeviceSubmitBlockingRequest+0x94>
   82970:	aa1303e1 	mov	x1, x19
   82974:	aa1403e0 	mov	x0, x20
   82978:	52800023 	mov	w3, #0x1                   	// #1
   8297c:	52800002 	mov	w2, #0x0                   	// #0
   82980:	97ffff6c 	bl	82730 <DWHCIDeviceTransferStage>
   82984:	34fff980 	cbz	w0, 828b4 <DWHCIDeviceSubmitBlockingRequest+0x94>
   82988:	f94013f5 	ldr	x21, [sp, #32]
   8298c:	17ffffe5 	b	82920 <DWHCIDeviceSubmitBlockingRequest+0x100>
   82990:	900000c1 	adrp	x1, 9a000 <CSWTCH.1+0x10>
   82994:	91000021 	add	x1, x1, #0x0
   82998:	52802842 	mov	w2, #0x142                 	// #322
   8299c:	900000c0 	adrp	x0, 9a000 <CSWTCH.1+0x10>
   829a0:	9103c000 	add	x0, x0, #0xf0
   829a4:	97fff7a7 	bl	80840 <uspi_assertion_failed>
   829a8:	aa1303e0 	mov	x0, x19
   829ac:	94001521 	bl	87e30 <USBRequestGetBufLen>
   829b0:	35fffa60 	cbnz	w0, 828fc <DWHCIDeviceSubmitBlockingRequest+0xdc>
   829b4:	900000c1 	adrp	x1, 9a000 <CSWTCH.1+0x10>
   829b8:	900000c0 	adrp	x0, 9a000 <CSWTCH.1+0x10>
   829bc:	91000021 	add	x1, x1, #0x0
   829c0:	91062000 	add	x0, x0, #0x188
   829c4:	52802862 	mov	w2, #0x143                 	// #323
   829c8:	97fff79e 	bl	80840 <uspi_assertion_failed>
   829cc:	17ffffcc 	b	828fc <DWHCIDeviceSubmitBlockingRequest+0xdc>
   829d0:	52800023 	mov	w3, #0x1                   	// #1
   829d4:	aa1303e1 	mov	x1, x19
   829d8:	aa1403e0 	mov	x0, x20
   829dc:	2a0303e2 	mov	w2, w3
   829e0:	97ffff54 	bl	82730 <DWHCIDeviceTransferStage>
   829e4:	34fff680 	cbz	w0, 828b4 <DWHCIDeviceSubmitBlockingRequest+0x94>
   829e8:	f94013f5 	ldr	x21, [sp, #32]
   829ec:	17ffffcd 	b	82920 <DWHCIDeviceSubmitBlockingRequest+0x100>
   829f0:	900000c1 	adrp	x1, 9a000 <CSWTCH.1+0x10>
   829f4:	900000c0 	adrp	x0, 9a000 <CSWTCH.1+0x10>
   829f8:	91000021 	add	x1, x1, #0x0
   829fc:	91062000 	add	x0, x0, #0x188
   82a00:	52802422 	mov	w2, #0x121                 	// #289
   82a04:	97fff78f 	bl	80840 <uspi_assertion_failed>
   82a08:	17ffffce 	b	82940 <DWHCIDeviceSubmitBlockingRequest+0x120>
   82a0c:	52802262 	mov	w2, #0x113                 	// #275
   82a10:	900000c1 	adrp	x1, 9a000 <CSWTCH.1+0x10>
   82a14:	900000c0 	adrp	x0, 9a000 <CSWTCH.1+0x10>
   82a18:	91000021 	add	x1, x1, #0x0
   82a1c:	91004000 	add	x0, x0, #0x10
   82a20:	97fff788 	bl	80840 <uspi_assertion_failed>
   82a24:	d5033fbf 	dmb	sy
   82a28:	b5fff0d3 	cbnz	x19, 82840 <DWHCIDeviceSubmitBlockingRequest+0x20>
   82a2c:	d503201f 	nop
   82a30:	900000c1 	adrp	x1, 9a000 <CSWTCH.1+0x10>
   82a34:	900000c0 	adrp	x0, 9a000 <CSWTCH.1+0x10>
   82a38:	91000021 	add	x1, x1, #0x0
   82a3c:	91038000 	add	x0, x0, #0xe0
   82a40:	528022e2 	mov	w2, #0x117                 	// #279
   82a44:	97fff77f 	bl	80840 <uspi_assertion_failed>
   82a48:	17ffff7e 	b	82840 <DWHCIDeviceSubmitBlockingRequest+0x20>
   82a4c:	900000c1 	adrp	x1, 9a000 <CSWTCH.1+0x10>
   82a50:	900000c0 	adrp	x0, 9a000 <CSWTCH.1+0x10>
   82a54:	91000021 	add	x1, x1, #0x0
   82a58:	91070000 	add	x0, x0, #0x1c0
   82a5c:	528023a2 	mov	w2, #0x11d                 	// #285
   82a60:	97fff778 	bl	80840 <uspi_assertion_failed>
   82a64:	17ffff83 	b	82870 <DWHCIDeviceSubmitBlockingRequest+0x50>
   82a68:	d503201f 	nop
   82a6c:	d503201f 	nop

0000000000082a70 <DWHCIDeviceControlMessage>:
   82a70:	a9b57bfd 	stp	x29, x30, [sp, #-176]!
   82a74:	910003fd 	mov	x29, sp
   82a78:	a90153f3 	stp	x19, x20, [sp, #16]
   82a7c:	aa0003f3 	mov	x19, x0
   82a80:	12003cf4 	and	w20, w7, #0xffff
   82a84:	a9025bf5 	stp	x21, x22, [sp, #32]
   82a88:	12003c96 	and	w22, w4, #0xffff
   82a8c:	12003cb5 	and	w21, w5, #0xffff
   82a90:	a90363f7 	stp	x23, x24, [sp, #48]
   82a94:	12001c58 	and	w24, w2, #0xff
   82a98:	12001c77 	and	w23, w3, #0xff
   82a9c:	f90023f9 	str	x25, [sp, #64]
   82aa0:	aa0103f9 	mov	x25, x1
   82aa4:	b4000380 	cbz	x0, 82b14 <DWHCIDeviceControlMessage+0xa4>
   82aa8:	aa0603e2 	mov	x2, x6
   82aac:	2a1403e3 	mov	w3, w20
   82ab0:	9101a3e4 	add	x4, sp, #0x68
   82ab4:	aa1903e1 	mov	x1, x25
   82ab8:	9101c3e0 	add	x0, sp, #0x70
   82abc:	3901a3f8 	strb	w24, [sp, #104]
   82ac0:	3901a7f7 	strb	w23, [sp, #105]
   82ac4:	7900d7f6 	strh	w22, [sp, #106]
   82ac8:	7900dbf5 	strh	w21, [sp, #108]
   82acc:	7900dff4 	strh	w20, [sp, #110]
   82ad0:	940013d4 	bl	87a20 <USBRequest>
   82ad4:	9101c3e1 	add	x1, sp, #0x70
   82ad8:	aa1303e0 	mov	x0, x19
   82adc:	97ffff51 	bl	82820 <DWHCIDeviceSubmitBlockingRequest>
   82ae0:	340002c0 	cbz	w0, 82b38 <DWHCIDeviceControlMessage+0xc8>
   82ae4:	9101c3e0 	add	x0, sp, #0x70
   82ae8:	94001472 	bl	87cb0 <USBRequestGetResultLength>
   82aec:	2a0003f3 	mov	w19, w0
   82af0:	9101c3e0 	add	x0, sp, #0x70
   82af4:	940013ff 	bl	87af0 <_USBRequest>
   82af8:	2a1303e0 	mov	w0, w19
   82afc:	a94153f3 	ldp	x19, x20, [sp, #16]
   82b00:	a9425bf5 	ldp	x21, x22, [sp, #32]
   82b04:	a94363f7 	ldp	x23, x24, [sp, #48]
   82b08:	f94023f9 	ldr	x25, [sp, #64]
   82b0c:	a8cb7bfd 	ldp	x29, x30, [sp], #176
   82b10:	d65f03c0 	ret
   82b14:	900000c1 	adrp	x1, 9a000 <CSWTCH.1+0x10>
   82b18:	900000c0 	adrp	x0, 9a000 <CSWTCH.1+0x10>
   82b1c:	91000021 	add	x1, x1, #0x0
   82b20:	91004000 	add	x0, x0, #0x10
   82b24:	52801ca2 	mov	w2, #0xe5                  	// #229
   82b28:	f9002fe6 	str	x6, [sp, #88]
   82b2c:	97fff745 	bl	80840 <uspi_assertion_failed>
   82b30:	f9402fe6 	ldr	x6, [sp, #88]
   82b34:	17ffffdd 	b	82aa8 <DWHCIDeviceControlMessage+0x38>
   82b38:	12800013 	mov	w19, #0xffffffff            	// #-1
   82b3c:	17ffffed 	b	82af0 <DWHCIDeviceControlMessage+0x80>

0000000000082b40 <DWHCIDeviceGetDescriptor>:
   82b40:	a9bb7bfd 	stp	x29, x30, [sp, #-80]!
   82b44:	910003fd 	mov	x29, sp
   82b48:	a90153f3 	stp	x19, x20, [sp, #16]
   82b4c:	aa0003f4 	mov	x20, x0
   82b50:	12001c53 	and	w19, w2, #0xff
   82b54:	a9025bf5 	stp	x21, x22, [sp, #32]
   82b58:	aa0103f5 	mov	x21, x1
   82b5c:	12001cd6 	and	w22, w6, #0xff
   82b60:	a90363f7 	stp	x23, x24, [sp, #48]
   82b64:	12001c78 	and	w24, w3, #0xff
   82b68:	aa0403f7 	mov	x23, x4
   82b6c:	b40001c0 	cbz	x0, 82ba4 <DWHCIDeviceGetDescriptor+0x64>
   82b70:	2a132304 	orr	w4, w24, w19, lsl #8
   82b74:	aa1703e6 	mov	x6, x23
   82b78:	2a1603e2 	mov	w2, w22
   82b7c:	aa1503e1 	mov	x1, x21
   82b80:	aa1403e0 	mov	x0, x20
   82b84:	2a0503e7 	mov	w7, w5
   82b88:	a94153f3 	ldp	x19, x20, [sp, #16]
   82b8c:	52800005 	mov	w5, #0x0                   	// #0
   82b90:	a9425bf5 	ldp	x21, x22, [sp, #32]
   82b94:	528000c3 	mov	w3, #0x6                   	// #6
   82b98:	a94363f7 	ldp	x23, x24, [sp, #48]
   82b9c:	a8c57bfd 	ldp	x29, x30, [sp], #80
   82ba0:	17ffffb4 	b	82a70 <DWHCIDeviceControlMessage>
   82ba4:	900000c1 	adrp	x1, 9a000 <CSWTCH.1+0x10>
   82ba8:	900000c0 	adrp	x0, 9a000 <CSWTCH.1+0x10>
   82bac:	91000021 	add	x1, x1, #0x0
   82bb0:	91004000 	add	x0, x0, #0x10
   82bb4:	528017a2 	mov	w2, #0xbd                  	// #189
   82bb8:	b9004fe5 	str	w5, [sp, #76]
   82bbc:	97fff721 	bl	80840 <uspi_assertion_failed>
   82bc0:	b9404fe5 	ldr	w5, [sp, #76]
   82bc4:	17ffffeb 	b	82b70 <DWHCIDeviceGetDescriptor+0x30>
   82bc8:	d503201f 	nop
   82bcc:	d503201f 	nop

0000000000082bd0 <DWHCIDeviceSetAddress>:
   82bd0:	a9bd7bfd 	stp	x29, x30, [sp, #-48]!
   82bd4:	910003fd 	mov	x29, sp
   82bd8:	a90153f3 	stp	x19, x20, [sp, #16]
   82bdc:	aa0003f3 	mov	x19, x0
   82be0:	aa0103f4 	mov	x20, x1
   82be4:	f90013f5 	str	x21, [sp, #32]
   82be8:	12001c55 	and	w21, w2, #0xff
   82bec:	b4000280 	cbz	x0, 82c3c <DWHCIDeviceSetAddress+0x6c>
   82bf0:	aa1403e1 	mov	x1, x20
   82bf4:	2a1503e4 	mov	w4, w21
   82bf8:	aa1303e0 	mov	x0, x19
   82bfc:	52800007 	mov	w7, #0x0                   	// #0
   82c00:	d2800006 	mov	x6, #0x0                   	// #0
   82c04:	52800005 	mov	w5, #0x0                   	// #0
   82c08:	528000a3 	mov	w3, #0x5                   	// #5
   82c0c:	52800002 	mov	w2, #0x0                   	// #0
   82c10:	97ffff98 	bl	82a70 <DWHCIDeviceControlMessage>
   82c14:	52800001 	mov	w1, #0x0                   	// #0
   82c18:	37f80080 	tbnz	w0, #31, 82c28 <DWHCIDeviceSetAddress+0x58>
   82c1c:	52800640 	mov	w0, #0x32                  	// #50
   82c20:	97fff668 	bl	805c0 <MsDelay>
   82c24:	52800021 	mov	w1, #0x1                   	// #1
   82c28:	2a0103e0 	mov	w0, w1
   82c2c:	a94153f3 	ldp	x19, x20, [sp, #16]
   82c30:	f94013f5 	ldr	x21, [sp, #32]
   82c34:	a8c37bfd 	ldp	x29, x30, [sp], #48
   82c38:	d65f03c0 	ret
   82c3c:	900000c1 	adrp	x1, 9a000 <CSWTCH.1+0x10>
   82c40:	900000c0 	adrp	x0, 9a000 <CSWTCH.1+0x10>
   82c44:	91000021 	add	x1, x1, #0x0
   82c48:	91004000 	add	x0, x0, #0x10
   82c4c:	528018e2 	mov	w2, #0xc7                  	// #199
   82c50:	97fff6fc 	bl	80840 <uspi_assertion_failed>
   82c54:	17ffffe7 	b	82bf0 <DWHCIDeviceSetAddress+0x20>
   82c58:	d503201f 	nop
   82c5c:	d503201f 	nop

0000000000082c60 <DWHCIDeviceSetConfiguration>:
   82c60:	a9bd7bfd 	stp	x29, x30, [sp, #-48]!
   82c64:	910003fd 	mov	x29, sp
   82c68:	a90153f3 	stp	x19, x20, [sp, #16]
   82c6c:	aa0003f3 	mov	x19, x0
   82c70:	aa0103f4 	mov	x20, x1
   82c74:	f90013f5 	str	x21, [sp, #32]
   82c78:	12001c55 	and	w21, w2, #0xff
   82c7c:	b4000280 	cbz	x0, 82ccc <DWHCIDeviceSetConfiguration+0x6c>
   82c80:	aa1403e1 	mov	x1, x20
   82c84:	2a1503e4 	mov	w4, w21
   82c88:	aa1303e0 	mov	x0, x19
   82c8c:	52800007 	mov	w7, #0x0                   	// #0
   82c90:	d2800006 	mov	x6, #0x0                   	// #0
   82c94:	52800005 	mov	w5, #0x0                   	// #0
   82c98:	52800123 	mov	w3, #0x9                   	// #9
   82c9c:	52800002 	mov	w2, #0x0                   	// #0
   82ca0:	97ffff74 	bl	82a70 <DWHCIDeviceControlMessage>
   82ca4:	52800001 	mov	w1, #0x0                   	// #0
   82ca8:	37f80080 	tbnz	w0, #31, 82cb8 <DWHCIDeviceSetConfiguration+0x58>
   82cac:	52800640 	mov	w0, #0x32                  	// #50
   82cb0:	97fff644 	bl	805c0 <MsDelay>
   82cb4:	52800021 	mov	w1, #0x1                   	// #1
   82cb8:	2a0103e0 	mov	w0, w1
   82cbc:	a94153f3 	ldp	x19, x20, [sp, #16]
   82cc0:	f94013f5 	ldr	x21, [sp, #32]
   82cc4:	a8c37bfd 	ldp	x29, x30, [sp], #48
   82cc8:	d65f03c0 	ret
   82ccc:	900000c1 	adrp	x1, 9a000 <CSWTCH.1+0x10>
   82cd0:	900000c0 	adrp	x0, 9a000 <CSWTCH.1+0x10>
   82cd4:	91000021 	add	x1, x1, #0x0
   82cd8:	91004000 	add	x0, x0, #0x10
   82cdc:	52801aa2 	mov	w2, #0xd5                  	// #213
   82ce0:	97fff6d8 	bl	80840 <uspi_assertion_failed>
   82ce4:	17ffffe7 	b	82c80 <DWHCIDeviceSetConfiguration+0x20>
   82ce8:	d503201f 	nop
   82cec:	d503201f 	nop

0000000000082cf0 <DWHCIDeviceTransfer>:
   82cf0:	a9b87bfd 	stp	x29, x30, [sp, #-128]!
   82cf4:	910003fd 	mov	x29, sp
   82cf8:	a90153f3 	stp	x19, x20, [sp, #16]
   82cfc:	aa0003f3 	mov	x19, x0
   82d00:	aa0103f4 	mov	x20, x1
   82d04:	f90013f5 	str	x21, [sp, #32]
   82d08:	aa0203f5 	mov	x21, x2
   82d0c:	b4000280 	cbz	x0, 82d5c <DWHCIDeviceTransfer+0x6c>
   82d10:	aa1503e2 	mov	x2, x21
   82d14:	d2800004 	mov	x4, #0x0                   	// #0
   82d18:	aa1403e1 	mov	x1, x20
   82d1c:	910103e0 	add	x0, sp, #0x40
   82d20:	94001340 	bl	87a20 <USBRequest>
   82d24:	910103e1 	add	x1, sp, #0x40
   82d28:	aa1303e0 	mov	x0, x19
   82d2c:	97fffebd 	bl	82820 <DWHCIDeviceSubmitBlockingRequest>
   82d30:	34000280 	cbz	w0, 82d80 <DWHCIDeviceTransfer+0x90>
   82d34:	910103e0 	add	x0, sp, #0x40
   82d38:	940013de 	bl	87cb0 <USBRequestGetResultLength>
   82d3c:	2a0003f3 	mov	w19, w0
   82d40:	910103e0 	add	x0, sp, #0x40
   82d44:	9400136b 	bl	87af0 <_USBRequest>
   82d48:	2a1303e0 	mov	w0, w19
   82d4c:	a94153f3 	ldp	x19, x20, [sp, #16]
   82d50:	f94013f5 	ldr	x21, [sp, #32]
   82d54:	a8c87bfd 	ldp	x29, x30, [sp], #128
   82d58:	d65f03c0 	ret
   82d5c:	900000c1 	adrp	x1, 9a000 <CSWTCH.1+0x10>
   82d60:	900000c0 	adrp	x0, 9a000 <CSWTCH.1+0x10>
   82d64:	91000021 	add	x1, x1, #0x0
   82d68:	91004000 	add	x0, x0, #0x10
   82d6c:	52802002 	mov	w2, #0x100                 	// #256
   82d70:	b9003fe3 	str	w3, [sp, #60]
   82d74:	97fff6b3 	bl	80840 <uspi_assertion_failed>
   82d78:	b9403fe3 	ldr	w3, [sp, #60]
   82d7c:	17ffffe5 	b	82d10 <DWHCIDeviceTransfer+0x20>
   82d80:	12800013 	mov	w19, #0xffffffff            	// #-1
   82d84:	17ffffef 	b	82d40 <DWHCIDeviceTransfer+0x50>
   82d88:	d503201f 	nop
   82d8c:	d503201f 	nop

0000000000082d90 <DWHCIDeviceChannelInterruptHandler>:
   82d90:	a9b87bfd 	stp	x29, x30, [sp, #-128]!
   82d94:	910003fd 	mov	x29, sp
   82d98:	a90153f3 	stp	x19, x20, [sp, #16]
   82d9c:	aa0003f4 	mov	x20, x0
   82da0:	a9025bf5 	stp	x21, x22, [sp, #32]
   82da4:	2a0103f5 	mov	w21, w1
   82da8:	a90363f7 	stp	x23, x24, [sp, #48]
   82dac:	b4001180 	cbz	x0, 82fdc <DWHCIDeviceChannelInterruptHandler+0x24c>
   82db0:	52801613 	mov	w19, #0xb0                  	// #176
   82db4:	9bb352b3 	umaddl	x19, w21, w19, x20
   82db8:	91002273 	add	x19, x19, #0x8
   82dbc:	aa1303e0 	mov	x0, x19
   82dc0:	94000b28 	bl	85a60 <DWHCITransferStageDataGetFrameScheduler>
   82dc4:	aa0003f8 	mov	x24, x0
   82dc8:	aa1303e0 	mov	x0, x19
   82dcc:	94000b09 	bl	859f0 <DWHCITransferStageDataGetURB>
   82dd0:	aa0003f6 	mov	x22, x0
   82dd4:	b4001120 	cbz	x0, 82ff8 <DWHCIDeviceChannelInterruptHandler+0x268>
   82dd8:	aa1303e0 	mov	x0, x19
   82ddc:	940007f1 	bl	84da0 <DWHCITransferStageDataGetSubState>
   82de0:	34000d60 	cbz	w0, 82f8c <DWHCIDeviceChannelInterruptHandler+0x1fc>
   82de4:	7100041f 	cmp	w0, #0x1
   82de8:	54000340 	b.eq	82e50 <DWHCIDeviceChannelInterruptHandler+0xc0>  // b.none
   82dec:	900000c1 	adrp	x1, 9a000 <CSWTCH.1+0x10>
   82df0:	91000021 	add	x1, x1, #0x0
   82df4:	52807b42 	mov	w2, #0x3da                 	// #986
   82df8:	f00000a0 	adrp	x0, 99000 <_ZN8CGPIOPin7SetModeE9TGPIOModei+0x50>
   82dfc:	913e0000 	add	x0, x0, #0xf80
   82e00:	97fff690 	bl	80840 <uspi_assertion_failed>
   82e04:	aa1303e0 	mov	x0, x19
   82e08:	940007be 	bl	84d00 <DWHCITransferStageDataGetState>
   82e0c:	2a0003f7 	mov	w23, w0
   82e10:	7100041f 	cmp	w0, #0x1
   82e14:	54000860 	b.eq	82f20 <DWHCIDeviceChannelInterruptHandler+0x190>  // b.none
   82e18:	340014a0 	cbz	w0, 830ac <DWHCIDeviceChannelInterruptHandler+0x31c>
   82e1c:	7100081f 	cmp	w0, #0x2
   82e20:	54000fa0 	b.eq	83014 <DWHCIDeviceChannelInterruptHandler+0x284>  // b.none
   82e24:	900000c1 	adrp	x1, 9a000 <CSWTCH.1+0x10>
   82e28:	f00000a0 	adrp	x0, 99000 <_ZN8CGPIOPin7SetModeE9TGPIOModei+0x50>
   82e2c:	91000021 	add	x1, x1, #0x0
   82e30:	913e0000 	add	x0, x0, #0xf80
   82e34:	52808f02 	mov	w2, #0x478                 	// #1144
   82e38:	97fff682 	bl	80840 <uspi_assertion_failed>
   82e3c:	a94153f3 	ldp	x19, x20, [sp, #16]
   82e40:	a9425bf5 	ldp	x21, x22, [sp, #32]
   82e44:	a94363f7 	ldp	x23, x24, [sp, #48]
   82e48:	a8c87bfd 	ldp	x29, x30, [sp], #128
   82e4c:	d65f03c0 	ret
   82e50:	aa1303e0 	mov	x0, x19
   82e54:	940009b3 	bl	85520 <DWHCITransferStageDataGetDMAAddress>
   82e58:	2a0003f7 	mov	w23, w0
   82e5c:	aa1303e0 	mov	x0, x19
   82e60:	940009cc 	bl	85590 <DWHCITransferStageDataGetBytesToTransfer>
   82e64:	2a0003e1 	mov	w1, w0
   82e68:	2a1703e0 	mov	w0, w23
   82e6c:	94003519 	bl	902d0 <uspi_CleanAndInvalidateDataCacheRange>
   82e70:	d5033fbf 	dmb	sy
   82e74:	531b6ab7 	lsl	w23, w21, #5
   82e78:	5280a201 	mov	w1, #0x510                 	// #1296
   82e7c:	72a7f301 	movk	w1, #0x3f98, lsl #16
   82e80:	0b0102e1 	add	w1, w23, w1
   82e84:	910143e0 	add	x0, sp, #0x50
   82e88:	94000516 	bl	842e0 <DWHCIRegister>
   82e8c:	910143e0 	add	x0, sp, #0x50
   82e90:	94000560 	bl	84410 <DWHCIRegisterRead>
   82e94:	5280a101 	mov	w1, #0x508                 	// #1288
   82e98:	72a7f301 	movk	w1, #0x3f98, lsl #16
   82e9c:	0b0102e1 	add	w1, w23, w1
   82ea0:	9101a3e0 	add	x0, sp, #0x68
   82ea4:	9400050f 	bl	842e0 <DWHCIRegister>
   82ea8:	9101a3e0 	add	x0, sp, #0x68
   82eac:	94000559 	bl	84410 <DWHCIRegisterRead>
   82eb0:	7100081f 	cmp	w0, #0x2
   82eb4:	540005c0 	b.eq	82f6c <DWHCIDeviceChannelInterruptHandler+0x1dc>  // b.none
   82eb8:	aa1303e0 	mov	x0, x19
   82ebc:	940007e5 	bl	84e50 <DWHCITransferStageDataIsPeriodic>
   82ec0:	35000760 	cbnz	w0, 82fac <DWHCIDeviceChannelInterruptHandler+0x21c>
   82ec4:	9101a3e0 	add	x0, sp, #0x68
   82ec8:	94000552 	bl	84410 <DWHCIRegisterRead>
   82ecc:	2a0003e1 	mov	w1, w0
   82ed0:	910143e0 	add	x0, sp, #0x50
   82ed4:	b9004fe1 	str	w1, [sp, #76]
   82ed8:	94000586 	bl	844f0 <DWHCIRegisterGet>
   82edc:	2a0003f7 	mov	w23, w0
   82ee0:	910143e0 	add	x0, sp, #0x50
   82ee4:	94000583 	bl	844f0 <DWHCIRegisterGet>
   82ee8:	b9404fe1 	ldr	w1, [sp, #76]
   82eec:	d35372e2 	ubfx	x2, x23, #19, #10
   82ef0:	12004803 	and	w3, w0, #0x7ffff
   82ef4:	aa1303e0 	mov	x0, x19
   82ef8:	940006ee 	bl	84ab0 <DWHCITransferStageDataTransactionComplete>
   82efc:	9101a3e0 	add	x0, sp, #0x68
   82f00:	94000530 	bl	843c0 <_DWHCIRegister>
   82f04:	910143e0 	add	x0, sp, #0x50
   82f08:	9400052e 	bl	843c0 <_DWHCIRegister>
   82f0c:	aa1303e0 	mov	x0, x19
   82f10:	9400077c 	bl	84d00 <DWHCITransferStageDataGetState>
   82f14:	2a0003f7 	mov	w23, w0
   82f18:	7100041f 	cmp	w0, #0x1
   82f1c:	54fff7e1 	b.ne	82e18 <DWHCIDeviceChannelInterruptHandler+0x88>  // b.any
   82f20:	aa1303e0 	mov	x0, x19
   82f24:	94000a63 	bl	858b0 <DWHCITransferStageDataGetTransactionStatus>
   82f28:	5280fb81 	mov	w1, #0x7dc                 	// #2012
   82f2c:	6a01001f 	tst	w0, w1
   82f30:	540014a1 	b.ne	831c4 <DWHCIDeviceChannelInterruptHandler+0x434>  // b.any
   82f34:	f9400f02 	ldr	x2, [x24, #24]
   82f38:	2a0003e1 	mov	w1, w0
   82f3c:	aa1803e0 	mov	x0, x24
   82f40:	d63f0040 	blr	x2
   82f44:	52800041 	mov	w1, #0x2                   	// #2
   82f48:	aa1303e0 	mov	x0, x19
   82f4c:	94000759 	bl	84cb0 <DWHCITransferStageDataSetState>
   82f50:	2a1703e1 	mov	w1, w23
   82f54:	aa1303e0 	mov	x0, x19
   82f58:	94000736 	bl	84c30 <DWHCITransferStageDataSetSplitComplete>
   82f5c:	f9400b01 	ldr	x1, [x24, #16]
   82f60:	aa1803e0 	mov	x0, x24
   82f64:	d63f0020 	blr	x1
   82f68:	34000700 	cbz	w0, 83048 <DWHCIDeviceChannelInterruptHandler+0x2b8>
   82f6c:	aa1303e1 	mov	x1, x19
   82f70:	aa1403e0 	mov	x0, x20
   82f74:	97fffc33 	bl	82040 <DWHCIDeviceStartTransaction>
   82f78:	a94153f3 	ldp	x19, x20, [sp, #16]
   82f7c:	a9425bf5 	ldp	x21, x22, [sp, #32]
   82f80:	a94363f7 	ldp	x23, x24, [sp, #48]
   82f84:	a8c87bfd 	ldp	x29, x30, [sp], #128
   82f88:	d65f03c0 	ret
   82f8c:	aa1303e1 	mov	x1, x19
   82f90:	aa1403e0 	mov	x0, x20
   82f94:	97fffb33 	bl	81c60 <DWHCIDeviceStartChannel>
   82f98:	a94153f3 	ldp	x19, x20, [sp, #16]
   82f9c:	a9425bf5 	ldp	x21, x22, [sp, #32]
   82fa0:	a94363f7 	ldp	x23, x24, [sp, #48]
   82fa4:	a8c87bfd 	ldp	x29, x30, [sp], #128
   82fa8:	d65f03c0 	ret
   82fac:	910143e0 	add	x0, sp, #0x50
   82fb0:	94000550 	bl	844f0 <DWHCIRegisterGet>
   82fb4:	531d7800 	ubfx	w0, w0, #29, #2
   82fb8:	71000c1f 	cmp	w0, #0x3
   82fbc:	54fff841 	b.ne	82ec4 <DWHCIDeviceChannelInterruptHandler+0x134>  // b.any
   82fc0:	900000c1 	adrp	x1, 9a000 <CSWTCH.1+0x10>
   82fc4:	900000c0 	adrp	x0, 9a000 <CSWTCH.1+0x10>
   82fc8:	91000021 	add	x1, x1, #0x0
   82fcc:	91074000 	add	x0, x0, #0x1d0
   82fd0:	528079e2 	mov	w2, #0x3cf                 	// #975
   82fd4:	97fff61b 	bl	80840 <uspi_assertion_failed>
   82fd8:	17ffffbb 	b	82ec4 <DWHCIDeviceChannelInterruptHandler+0x134>
   82fdc:	900000c1 	adrp	x1, 9a000 <CSWTCH.1+0x10>
   82fe0:	900000c0 	adrp	x0, 9a000 <CSWTCH.1+0x10>
   82fe4:	91000021 	add	x1, x1, #0x0
   82fe8:	91004000 	add	x0, x0, #0x10
   82fec:	528075a2 	mov	w2, #0x3ad                 	// #941
   82ff0:	97fff614 	bl	80840 <uspi_assertion_failed>
   82ff4:	17ffff6f 	b	82db0 <DWHCIDeviceChannelInterruptHandler+0x20>
   82ff8:	900000c1 	adrp	x1, 9a000 <CSWTCH.1+0x10>
   82ffc:	900000c0 	adrp	x0, 9a000 <CSWTCH.1+0x10>
   83000:	91000021 	add	x1, x1, #0x0
   83004:	91038000 	add	x0, x0, #0xe0
   83008:	52807642 	mov	w2, #0x3b2                 	// #946
   8300c:	97fff60d 	bl	80840 <uspi_assertion_failed>
   83010:	17ffff72 	b	82dd8 <DWHCIDeviceChannelInterruptHandler+0x48>
   83014:	aa1303e0 	mov	x0, x19
   83018:	94000a26 	bl	858b0 <DWHCITransferStageDataGetTransactionStatus>
   8301c:	5280f181 	mov	w1, #0x78c                 	// #1932
   83020:	6a01001f 	tst	w0, w1
   83024:	54000f81 	b.ne	83214 <DWHCIDeviceChannelInterruptHandler+0x484>  // b.any
   83028:	f9400f02 	ldr	x2, [x24, #24]
   8302c:	2a0003e1 	mov	w1, w0
   83030:	aa1803e0 	mov	x0, x24
   83034:	d63f0040 	blr	x2
   83038:	f9400b01 	ldr	x1, [x24, #16]
   8303c:	aa1803e0 	mov	x0, x24
   83040:	d63f0020 	blr	x1
   83044:	35fff940 	cbnz	w0, 82f6c <DWHCIDeviceChannelInterruptHandler+0x1dc>
   83048:	aa1303e0 	mov	x0, x19
   8304c:	94000a35 	bl	85920 <DWHCITransferStageDataIsStageComplete>
   83050:	35000720 	cbnz	w0, 83134 <DWHCIDeviceChannelInterruptHandler+0x3a4>
   83054:	aa1303e0 	mov	x0, x19
   83058:	94000766 	bl	84df0 <DWHCITransferStageDataBeginSplitCycle>
   8305c:	52800001 	mov	w1, #0x0                   	// #0
   83060:	350007e0 	cbnz	w0, 8315c <DWHCIDeviceChannelInterruptHandler+0x3cc>
   83064:	d503201f 	nop
   83068:	aa1603e0 	mov	x0, x22
   8306c:	940012d5 	bl	87bc0 <USBRequestSetStatus>
   83070:	2a1503e1 	mov	w1, w21
   83074:	aa1403e0 	mov	x0, x20
   83078:	97fffada 	bl	81be0 <DWHCIDeviceDisableChannelInterrupt>
   8307c:	aa1303e0 	mov	x0, x19
   83080:	94000674 	bl	84a50 <_DWHCITransferStageData>
   83084:	2a1503e1 	mov	w1, w21
   83088:	aa1403e0 	mov	x0, x20
   8308c:	97fffcc5 	bl	823a0 <DWHCIDeviceFreeChannel>
   83090:	aa1603e0 	mov	x0, x22
   83094:	9400139f 	bl	87f10 <USBRequestCallCompletionRoutine>
   83098:	a94153f3 	ldp	x19, x20, [sp, #16]
   8309c:	a9425bf5 	ldp	x21, x22, [sp, #32]
   830a0:	a94363f7 	ldp	x23, x24, [sp, #48]
   830a4:	a8c87bfd 	ldp	x29, x30, [sp], #128
   830a8:	d65f03c0 	ret
   830ac:	aa1303e0 	mov	x0, x19
   830b0:	94000a00 	bl	858b0 <DWHCITransferStageDataGetTransactionStatus>
   830b4:	5280f181 	mov	w1, #0x78c                 	// #1932
   830b8:	6a01001f 	tst	w0, w1
   830bc:	54000961 	b.ne	831e8 <DWHCIDeviceChannelInterruptHandler+0x458>  // b.any
   830c0:	52800a01 	mov	w1, #0x50                  	// #80
   830c4:	6a01001f 	tst	w0, w1
   830c8:	540002c0 	b.eq	83120 <DWHCIDeviceChannelInterruptHandler+0x390>  // b.none
   830cc:	aa1303e0 	mov	x0, x19
   830d0:	94000760 	bl	84e50 <DWHCITransferStageDataIsPeriodic>
   830d4:	34000260 	cbz	w0, 83120 <DWHCIDeviceChannelInterruptHandler+0x390>
   830d8:	52800061 	mov	w1, #0x3                   	// #3
   830dc:	aa1303e0 	mov	x0, x19
   830e0:	940006f4 	bl	84cb0 <DWHCITransferStageDataSetState>
   830e4:	aa1603e0 	mov	x0, x22
   830e8:	9400129a 	bl	87b50 <USBRequestGetEndpoint>
   830ec:	940011b1 	bl	877b0 <USBEndpointGetInterval>
   830f0:	52800c81 	mov	w1, #0x64                  	// #100
   830f4:	5289ba64 	mov	w4, #0x4dd3                	// #19923
   830f8:	72a20c44 	movk	w4, #0x1062, lsl #16
   830fc:	aa1403e3 	mov	x3, x20
   83100:	1b017c00 	mul	w0, w0, w1
   83104:	aa1303e2 	mov	x2, x19
   83108:	f0ffffe1 	adrp	x1, 82000 <DWHCIDeviceStartChannel+0x3a0>
   8310c:	91068021 	add	x1, x1, #0x1a0
   83110:	9ba47c00 	umull	x0, w0, w4
   83114:	d366fc00 	lsr	x0, x0, #38
   83118:	97fff53a 	bl	80600 <StartKernelTimer>
   8311c:	17ffff48 	b	82e3c <DWHCIDeviceChannelInterruptHandler+0xac>
   83120:	aa1303e0 	mov	x0, x19
   83124:	940008eb 	bl	854d0 <DWHCITransferStageDataIsStatusStage>
   83128:	34000340 	cbz	w0, 83190 <DWHCIDeviceChannelInterruptHandler+0x400>
   8312c:	52800021 	mov	w1, #0x1                   	// #1
   83130:	17ffffce 	b	83068 <DWHCIDeviceChannelInterruptHandler+0x2d8>
   83134:	2a1503e1 	mov	w1, w21
   83138:	aa1403e0 	mov	x0, x20
   8313c:	97fffaa9 	bl	81be0 <DWHCIDeviceDisableChannelInterrupt>
   83140:	aa1303e0 	mov	x0, x19
   83144:	940008e3 	bl	854d0 <DWHCITransferStageDataIsStatusStage>
   83148:	34000320 	cbz	w0, 831ac <DWHCIDeviceChannelInterruptHandler+0x41c>
   8314c:	52800021 	mov	w1, #0x1                   	// #1
   83150:	aa1603e0 	mov	x0, x22
   83154:	9400129b 	bl	87bc0 <USBRequestSetStatus>
   83158:	17ffffc9 	b	8307c <DWHCIDeviceChannelInterruptHandler+0x2ec>
   8315c:	aa1303e0 	mov	x0, x19
   83160:	9400073c 	bl	84e50 <DWHCITransferStageDataIsPeriodic>
   83164:	35fffba0 	cbnz	w0, 830d8 <DWHCIDeviceChannelInterruptHandler+0x348>
   83168:	aa1303e0 	mov	x0, x19
   8316c:	52800021 	mov	w1, #0x1                   	// #1
   83170:	940006d0 	bl	84cb0 <DWHCITransferStageDataSetState>
   83174:	aa1303e0 	mov	x0, x19
   83178:	52800001 	mov	w1, #0x0                   	// #0
   8317c:	940006ad 	bl	84c30 <DWHCITransferStageDataSetSplitComplete>
   83180:	f9400701 	ldr	x1, [x24, #8]
   83184:	aa1803e0 	mov	x0, x24
   83188:	d63f0020 	blr	x1
   8318c:	17ffff78 	b	82f6c <DWHCIDeviceChannelInterruptHandler+0x1dc>
   83190:	aa1303e0 	mov	x0, x19
   83194:	940009fb 	bl	85980 <DWHCITransferStageDataGetResultLen>
   83198:	2a0003e1 	mov	w1, w0
   8319c:	aa1603e0 	mov	x0, x22
   831a0:	9400129c 	bl	87c10 <USBRequestSetResultLen>
   831a4:	52800021 	mov	w1, #0x1                   	// #1
   831a8:	17ffffb0 	b	83068 <DWHCIDeviceChannelInterruptHandler+0x2d8>
   831ac:	aa1303e0 	mov	x0, x19
   831b0:	940009f4 	bl	85980 <DWHCITransferStageDataGetResultLen>
   831b4:	2a0003e1 	mov	w1, w0
   831b8:	aa1603e0 	mov	x0, x22
   831bc:	94001295 	bl	87c10 <USBRequestSetResultLen>
   831c0:	17ffffe3 	b	8314c <DWHCIDeviceChannelInterruptHandler+0x3bc>
   831c4:	2a0003e3 	mov	w3, w0
   831c8:	2a1703e1 	mov	w1, w23
   831cc:	f00000a2 	adrp	x2, 9a000 <CSWTCH.1+0x10>
   831d0:	9109a042 	add	x2, x2, #0x268
   831d4:	d00000a0 	adrp	x0, 99000 <_ZN8CGPIOPin7SetModeE9TGPIOModei+0x50>
   831d8:	913fa000 	add	x0, x0, #0xfe8
   831dc:	97fff571 	bl	807a0 <LogWrite>
   831e0:	52800001 	mov	w1, #0x0                   	// #0
   831e4:	17ffffa1 	b	83068 <DWHCIDeviceChannelInterruptHandler+0x2d8>
   831e8:	2a0003e3 	mov	w3, w0
   831ec:	f00000a2 	adrp	x2, 9a000 <CSWTCH.1+0x10>
   831f0:	9109a042 	add	x2, x2, #0x268
   831f4:	52800021 	mov	w1, #0x1                   	// #1
   831f8:	d00000a0 	adrp	x0, 99000 <_ZN8CGPIOPin7SetModeE9TGPIOModei+0x50>
   831fc:	913fa000 	add	x0, x0, #0xfe8
   83200:	97fff568 	bl	807a0 <LogWrite>
   83204:	52800001 	mov	w1, #0x0                   	// #0
   83208:	aa1603e0 	mov	x0, x22
   8320c:	9400126d 	bl	87bc0 <USBRequestSetStatus>
   83210:	17ffff98 	b	83070 <DWHCIDeviceChannelInterruptHandler+0x2e0>
   83214:	2a0003e3 	mov	w3, w0
   83218:	52800021 	mov	w1, #0x1                   	// #1
   8321c:	f00000a2 	adrp	x2, 9a000 <CSWTCH.1+0x10>
   83220:	9109a042 	add	x2, x2, #0x268
   83224:	d00000a0 	adrp	x0, 99000 <_ZN8CGPIOPin7SetModeE9TGPIOModei+0x50>
   83228:	913fa000 	add	x0, x0, #0xfe8
   8322c:	97fff55d 	bl	807a0 <LogWrite>
   83230:	52800001 	mov	w1, #0x0                   	// #0
   83234:	17ffff8d 	b	83068 <DWHCIDeviceChannelInterruptHandler+0x2d8>
   83238:	d503201f 	nop
   8323c:	d503201f 	nop

0000000000083240 <DWHCIDeviceInterruptHandler>:
   83240:	a9b87bfd 	stp	x29, x30, [sp, #-128]!
   83244:	910003fd 	mov	x29, sp
   83248:	a9025bf5 	stp	x21, x22, [sp, #32]
   8324c:	aa0003f5 	mov	x21, x0
   83250:	b4000900 	cbz	x0, 83370 <DWHCIDeviceInterruptHandler+0x130>
   83254:	d5033fbf 	dmb	sy
   83258:	d2800281 	mov	x1, #0x14                  	// #20
   8325c:	f2a7f301 	movk	x1, #0x3f98, lsl #16
   83260:	9100e3e0 	add	x0, sp, #0x38
   83264:	9400041f 	bl	842e0 <DWHCIRegister>
   83268:	9100e3e0 	add	x0, sp, #0x38
   8326c:	94000469 	bl	84410 <DWHCIRegisterRead>
   83270:	9100e3e0 	add	x0, sp, #0x38
   83274:	9400049f 	bl	844f0 <DWHCIRegisterGet>
   83278:	7207001f 	tst	w0, #0x2000000
   8327c:	54000121 	b.ne	832a0 <DWHCIDeviceInterruptHandler+0x60>  // b.any
   83280:	9100e3e0 	add	x0, sp, #0x38
   83284:	9400047b 	bl	84470 <DWHCIRegisterWrite>
   83288:	d5033fbf 	dmb	sy
   8328c:	9100e3e0 	add	x0, sp, #0x38
   83290:	9400044c 	bl	843c0 <_DWHCIRegister>
   83294:	a9425bf5 	ldp	x21, x22, [sp, #32]
   83298:	a8c87bfd 	ldp	x29, x30, [sp], #128
   8329c:	d65f03c0 	ret
   832a0:	d2808281 	mov	x1, #0x414                 	// #1044
   832a4:	f2a7f301 	movk	x1, #0x3f98, lsl #16
   832a8:	910143e0 	add	x0, sp, #0x50
   832ac:	9400040d 	bl	842e0 <DWHCIRegister>
   832b0:	910143e0 	add	x0, sp, #0x50
   832b4:	94000457 	bl	84410 <DWHCIRegisterRead>
   832b8:	910143e0 	add	x0, sp, #0x50
   832bc:	9400046d 	bl	84470 <DWHCIRegisterWrite>
   832c0:	b94002a0 	ldr	w0, [x21]
   832c4:	34000420 	cbz	w0, 83348 <DWHCIDeviceInterruptHandler+0x108>
   832c8:	5280a196 	mov	w22, #0x50c                 	// #1292
   832cc:	72a7f316 	movk	w22, #0x3f98, lsl #16
   832d0:	a90153f3 	stp	x19, x20, [sp, #16]
   832d4:	52800014 	mov	w20, #0x0                   	// #0
   832d8:	52800033 	mov	w19, #0x1                   	// #1
   832dc:	14000006 	b	832f4 <DWHCIDeviceInterruptHandler+0xb4>
   832e0:	b94002a0 	ldr	w0, [x21]
   832e4:	11000694 	add	w20, w20, #0x1
   832e8:	0b130273 	add	w19, w19, w19
   832ec:	6b14001f 	cmp	w0, w20
   832f0:	540002a9 	b.ls	83344 <DWHCIDeviceInterruptHandler+0x104>  // b.plast
   832f4:	910143e0 	add	x0, sp, #0x50
   832f8:	9400047e 	bl	844f0 <DWHCIRegisterGet>
   832fc:	6a13001f 	tst	w0, w19
   83300:	54ffff00 	b.eq	832e0 <DWHCIDeviceInterruptHandler+0xa0>  // b.none
   83304:	0b1416c1 	add	w1, w22, w20, lsl #5
   83308:	52800002 	mov	w2, #0x0                   	// #0
   8330c:	9101a3e0 	add	x0, sp, #0x68
   83310:	9400040c 	bl	84340 <DWHCIRegister2>
   83314:	9101a3e0 	add	x0, sp, #0x68
   83318:	0b130273 	add	w19, w19, w19
   8331c:	94000455 	bl	84470 <DWHCIRegisterWrite>
   83320:	2a1403e1 	mov	w1, w20
   83324:	aa1503e0 	mov	x0, x21
   83328:	97fffe9a 	bl	82d90 <DWHCIDeviceChannelInterruptHandler>
   8332c:	11000694 	add	w20, w20, #0x1
   83330:	9101a3e0 	add	x0, sp, #0x68
   83334:	94000423 	bl	843c0 <_DWHCIRegister>
   83338:	b94002a0 	ldr	w0, [x21]
   8333c:	6b14001f 	cmp	w0, w20
   83340:	54fffda8 	b.hi	832f4 <DWHCIDeviceInterruptHandler+0xb4>  // b.pmore
   83344:	a94153f3 	ldp	x19, x20, [sp, #16]
   83348:	910143e0 	add	x0, sp, #0x50
   8334c:	9400041d 	bl	843c0 <_DWHCIRegister>
   83350:	9100e3e0 	add	x0, sp, #0x38
   83354:	94000447 	bl	84470 <DWHCIRegisterWrite>
   83358:	d5033fbf 	dmb	sy
   8335c:	9100e3e0 	add	x0, sp, #0x38
   83360:	94000418 	bl	843c0 <_DWHCIRegister>
   83364:	a9425bf5 	ldp	x21, x22, [sp, #32]
   83368:	a8c87bfd 	ldp	x29, x30, [sp], #128
   8336c:	d65f03c0 	ret
   83370:	f00000a1 	adrp	x1, 9a000 <CSWTCH.1+0x10>
   83374:	f00000a0 	adrp	x0, 9a000 <CSWTCH.1+0x10>
   83378:	91000021 	add	x1, x1, #0x0
   8337c:	91004000 	add	x0, x0, #0x10
   83380:	52809002 	mov	w2, #0x480                 	// #1152
   83384:	97fff52f 	bl	80840 <uspi_assertion_failed>
   83388:	17ffffb3 	b	83254 <DWHCIDeviceInterruptHandler+0x14>
   8338c:	d503201f 	nop

0000000000083390 <DWHCIDeviceWaitForBit>:
   83390:	a9bd7bfd 	stp	x29, x30, [sp, #-48]!
   83394:	910003fd 	mov	x29, sp
   83398:	a90153f3 	stp	x19, x20, [sp, #16]
   8339c:	aa0103f4 	mov	x20, x1
   833a0:	2a0403f3 	mov	w19, w4
   833a4:	a9025bf5 	stp	x21, x22, [sp, #32]
   833a8:	2a0203f5 	mov	w21, w2
   833ac:	2a0303f6 	mov	w22, w3
   833b0:	b4000660 	cbz	x0, 8347c <DWHCIDeviceWaitForBit+0xec>
   833b4:	b4000554 	cbz	x20, 8345c <DWHCIDeviceWaitForBit+0xcc>
   833b8:	340002d5 	cbz	w21, 83410 <DWHCIDeviceWaitForBit+0x80>
   833bc:	35000133 	cbnz	w19, 833e0 <DWHCIDeviceWaitForBit+0x50>
   833c0:	1400001b 	b	8342c <DWHCIDeviceWaitForBit+0x9c>
   833c4:	710002df 	cmp	w22, #0x0
   833c8:	52800020 	mov	w0, #0x1                   	// #1
   833cc:	1a9f17e1 	cset	w1, eq  // eq = none
   833d0:	34000181 	cbz	w1, 83400 <DWHCIDeviceWaitForBit+0x70>
   833d4:	97fff47b 	bl	805c0 <MsDelay>
   833d8:	71000673 	subs	w19, w19, #0x1
   833dc:	54000360 	b.eq	83448 <DWHCIDeviceWaitForBit+0xb8>  // b.none
   833e0:	aa1403e0 	mov	x0, x20
   833e4:	9400040b 	bl	84410 <DWHCIRegisterRead>
   833e8:	6a15001f 	tst	w0, w21
   833ec:	54fffec1 	b.ne	833c4 <DWHCIDeviceWaitForBit+0x34>  // b.any
   833f0:	710002df 	cmp	w22, #0x0
   833f4:	52800020 	mov	w0, #0x1                   	// #1
   833f8:	1a9f07e1 	cset	w1, ne  // ne = any
   833fc:	35fffec1 	cbnz	w1, 833d4 <DWHCIDeviceWaitForBit+0x44>
   83400:	a94153f3 	ldp	x19, x20, [sp, #16]
   83404:	a9425bf5 	ldp	x21, x22, [sp, #32]
   83408:	a8c37bfd 	ldp	x29, x30, [sp], #48
   8340c:	d65f03c0 	ret
   83410:	f00000a1 	adrp	x1, 9a000 <CSWTCH.1+0x10>
   83414:	f00000a0 	adrp	x0, 9a000 <CSWTCH.1+0x10>
   83418:	91000021 	add	x1, x1, #0x0
   8341c:	910a8000 	add	x0, x0, #0x2a0
   83420:	5280a122 	mov	w2, #0x509                 	// #1289
   83424:	97fff507 	bl	80840 <uspi_assertion_failed>
   83428:	35fffdd3 	cbnz	w19, 833e0 <DWHCIDeviceWaitForBit+0x50>
   8342c:	f00000a1 	adrp	x1, 9a000 <CSWTCH.1+0x10>
   83430:	f00000a0 	adrp	x0, 9a000 <CSWTCH.1+0x10>
   83434:	91000021 	add	x1, x1, #0x0
   83438:	910ac000 	add	x0, x0, #0x2b0
   8343c:	5280a142 	mov	w2, #0x50a                 	// #1290
   83440:	97fff500 	bl	80840 <uspi_assertion_failed>
   83444:	17ffffe7 	b	833e0 <DWHCIDeviceWaitForBit+0x50>
   83448:	52800000 	mov	w0, #0x0                   	// #0
   8344c:	a94153f3 	ldp	x19, x20, [sp, #16]
   83450:	a9425bf5 	ldp	x21, x22, [sp, #32]
   83454:	a8c37bfd 	ldp	x29, x30, [sp], #48
   83458:	d65f03c0 	ret
   8345c:	f00000a1 	adrp	x1, 9a000 <CSWTCH.1+0x10>
   83460:	f00000a0 	adrp	x0, 9a000 <CSWTCH.1+0x10>
   83464:	91000021 	add	x1, x1, #0x0
   83468:	910a4000 	add	x0, x0, #0x290
   8346c:	5280a102 	mov	w2, #0x508                 	// #1288
   83470:	97fff4f4 	bl	80840 <uspi_assertion_failed>
   83474:	35fffa55 	cbnz	w21, 833bc <DWHCIDeviceWaitForBit+0x2c>
   83478:	17ffffe6 	b	83410 <DWHCIDeviceWaitForBit+0x80>
   8347c:	f00000a1 	adrp	x1, 9a000 <CSWTCH.1+0x10>
   83480:	f00000a0 	adrp	x0, 9a000 <CSWTCH.1+0x10>
   83484:	91000021 	add	x1, x1, #0x0
   83488:	91004000 	add	x0, x0, #0x10
   8348c:	5280a0c2 	mov	w2, #0x506                 	// #1286
   83490:	97fff4ec 	bl	80840 <uspi_assertion_failed>
   83494:	b5fff934 	cbnz	x20, 833b8 <DWHCIDeviceWaitForBit+0x28>
   83498:	17fffff1 	b	8345c <DWHCIDeviceWaitForBit+0xcc>
   8349c:	d503201f 	nop

00000000000834a0 <DWHCIDeviceEnableRootPort>:
   834a0:	a9bc7bfd 	stp	x29, x30, [sp, #-64]!
   834a4:	910003fd 	mov	x29, sp
   834a8:	f9000bf3 	str	x19, [sp, #16]
   834ac:	aa0003f3 	mov	x19, x0
   834b0:	b40005c0 	cbz	x0, 83568 <DWHCIDeviceEnableRootPort+0xc8>
   834b4:	9100a3e0 	add	x0, sp, #0x28
   834b8:	d2808801 	mov	x1, #0x440                 	// #1088
   834bc:	f2a7f301 	movk	x1, #0x3f98, lsl #16
   834c0:	94000388 	bl	842e0 <DWHCIRegister>
   834c4:	aa1303e0 	mov	x0, x19
   834c8:	52800023 	mov	w3, #0x1                   	// #1
   834cc:	9100a3e1 	add	x1, sp, #0x28
   834d0:	52800284 	mov	w4, #0x14                  	// #20
   834d4:	2a0303e2 	mov	w2, w3
   834d8:	97ffffae 	bl	83390 <DWHCIDeviceWaitForBit>
   834dc:	2a0003f3 	mov	w19, w0
   834e0:	34000380 	cbz	w0, 83550 <DWHCIDeviceEnableRootPort+0xb0>
   834e4:	52800c80 	mov	w0, #0x64                  	// #100
   834e8:	97fff436 	bl	805c0 <MsDelay>
   834ec:	9100a3e0 	add	x0, sp, #0x28
   834f0:	940003c8 	bl	84410 <DWHCIRegisterRead>
   834f4:	128005c1 	mov	w1, #0xffffffd1            	// #-47
   834f8:	9100a3e0 	add	x0, sp, #0x28
   834fc:	94000455 	bl	84650 <DWHCIRegisterAnd>
   83500:	52800033 	mov	w19, #0x1                   	// #1
   83504:	52802001 	mov	w1, #0x100                 	// #256
   83508:	9100a3e0 	add	x0, sp, #0x28
   8350c:	94000475 	bl	846e0 <DWHCIRegisterOr>
   83510:	9100a3e0 	add	x0, sp, #0x28
   83514:	940003d7 	bl	84470 <DWHCIRegisterWrite>
   83518:	52800640 	mov	w0, #0x32                  	// #50
   8351c:	97fff429 	bl	805c0 <MsDelay>
   83520:	9100a3e0 	add	x0, sp, #0x28
   83524:	940003bb 	bl	84410 <DWHCIRegisterRead>
   83528:	128005c1 	mov	w1, #0xffffffd1            	// #-47
   8352c:	9100a3e0 	add	x0, sp, #0x28
   83530:	94000448 	bl	84650 <DWHCIRegisterAnd>
   83534:	12802001 	mov	w1, #0xfffffeff            	// #-257
   83538:	9100a3e0 	add	x0, sp, #0x28
   8353c:	94000445 	bl	84650 <DWHCIRegisterAnd>
   83540:	9100a3e0 	add	x0, sp, #0x28
   83544:	940003cb 	bl	84470 <DWHCIRegisterWrite>
   83548:	52800280 	mov	w0, #0x14                  	// #20
   8354c:	97fff41d 	bl	805c0 <MsDelay>
   83550:	9100a3e0 	add	x0, sp, #0x28
   83554:	9400039b 	bl	843c0 <_DWHCIRegister>
   83558:	2a1303e0 	mov	w0, w19
   8355c:	f9400bf3 	ldr	x19, [sp, #16]
   83560:	a8c47bfd 	ldp	x29, x30, [sp], #64
   83564:	d65f03c0 	ret
   83568:	f00000a1 	adrp	x1, 9a000 <CSWTCH.1+0x10>
   8356c:	f00000a0 	adrp	x0, 9a000 <CSWTCH.1+0x10>
   83570:	91000021 	add	x1, x1, #0x0
   83574:	91004000 	add	x0, x0, #0x10
   83578:	52803f62 	mov	w2, #0x1fb                 	// #507
   8357c:	97fff4b1 	bl	80840 <uspi_assertion_failed>
   83580:	17ffffcd 	b	834b4 <DWHCIDeviceEnableRootPort+0x14>
   83584:	d503201f 	nop
   83588:	d503201f 	nop
   8358c:	d503201f 	nop

0000000000083590 <DWHCIDeviceReset>:
   83590:	a9bc7bfd 	stp	x29, x30, [sp, #-64]!
   83594:	910003fd 	mov	x29, sp
   83598:	f9000bf3 	str	x19, [sp, #16]
   8359c:	aa0003f3 	mov	x19, x0
   835a0:	b40004e0 	cbz	x0, 8363c <DWHCIDeviceReset+0xac>
   835a4:	9100a3e0 	add	x0, sp, #0x28
   835a8:	52800002 	mov	w2, #0x0                   	// #0
   835ac:	d2800201 	mov	x1, #0x10                  	// #16
   835b0:	f2a7f301 	movk	x1, #0x3f98, lsl #16
   835b4:	94000363 	bl	84340 <DWHCIRegister2>
   835b8:	9100a3e1 	add	x1, sp, #0x28
   835bc:	52800c84 	mov	w4, #0x64                  	// #100
   835c0:	52800023 	mov	w3, #0x1                   	// #1
   835c4:	52b00002 	mov	w2, #0x80000000            	// #-2147483648
   835c8:	aa1303e0 	mov	x0, x19
   835cc:	97ffff71 	bl	83390 <DWHCIDeviceWaitForBit>
   835d0:	340002a0 	cbz	w0, 83624 <DWHCIDeviceReset+0x94>
   835d4:	52800021 	mov	w1, #0x1                   	// #1
   835d8:	9100a3e0 	add	x0, sp, #0x28
   835dc:	94000441 	bl	846e0 <DWHCIRegisterOr>
   835e0:	9100a3e0 	add	x0, sp, #0x28
   835e4:	940003a3 	bl	84470 <DWHCIRegisterWrite>
   835e8:	aa1303e0 	mov	x0, x19
   835ec:	52800144 	mov	w4, #0xa                   	// #10
   835f0:	52800003 	mov	w3, #0x0                   	// #0
   835f4:	52800022 	mov	w2, #0x1                   	// #1
   835f8:	9100a3e1 	add	x1, sp, #0x28
   835fc:	97ffff65 	bl	83390 <DWHCIDeviceWaitForBit>
   83600:	34000120 	cbz	w0, 83624 <DWHCIDeviceReset+0x94>
   83604:	52800c80 	mov	w0, #0x64                  	// #100
   83608:	97fff3ee 	bl	805c0 <MsDelay>
   8360c:	9100a3e0 	add	x0, sp, #0x28
   83610:	9400036c 	bl	843c0 <_DWHCIRegister>
   83614:	52800020 	mov	w0, #0x1                   	// #1
   83618:	f9400bf3 	ldr	x19, [sp, #16]
   8361c:	a8c47bfd 	ldp	x29, x30, [sp], #64
   83620:	d65f03c0 	ret
   83624:	9100a3e0 	add	x0, sp, #0x28
   83628:	94000366 	bl	843c0 <_DWHCIRegister>
   8362c:	52800000 	mov	w0, #0x0                   	// #0
   83630:	f9400bf3 	ldr	x19, [sp, #16]
   83634:	a8c47bfd 	ldp	x29, x30, [sp], #64
   83638:	d65f03c0 	ret
   8363c:	f00000a1 	adrp	x1, 9a000 <CSWTCH.1+0x10>
   83640:	f00000a0 	adrp	x0, 9a000 <CSWTCH.1+0x10>
   83644:	91000021 	add	x1, x1, #0x0
   83648:	91004000 	add	x0, x0, #0x10
   8364c:	528043c2 	mov	w2, #0x21e                 	// #542
   83650:	97fff47c 	bl	80840 <uspi_assertion_failed>
   83654:	17ffffd4 	b	835a4 <DWHCIDeviceReset+0x14>
   83658:	d503201f 	nop
   8365c:	d503201f 	nop

0000000000083660 <DWHCIDeviceInitCore>:
   83660:	a9b97bfd 	stp	x29, x30, [sp, #-112]!
   83664:	910003fd 	mov	x29, sp
   83668:	a90153f3 	stp	x19, x20, [sp, #16]
   8366c:	aa0003f3 	mov	x19, x0
   83670:	b4001420 	cbz	x0, 838f4 <DWHCIDeviceInitCore+0x294>
   83674:	d2800181 	mov	x1, #0xc                   	// #12
   83678:	f2a7f301 	movk	x1, #0x3f98, lsl #16
   8367c:	9100a3e0 	add	x0, sp, #0x28
   83680:	94000318 	bl	842e0 <DWHCIRegister>
   83684:	9100a3e0 	add	x0, sp, #0x28
   83688:	94000362 	bl	84410 <DWHCIRegisterRead>
   8368c:	9100a3e0 	add	x0, sp, #0x28
   83690:	12a00201 	mov	w1, #0xffefffff            	// #-1048577
   83694:	940003ef 	bl	84650 <DWHCIRegisterAnd>
   83698:	12a00801 	mov	w1, #0xffbfffff            	// #-4194305
   8369c:	9100a3e0 	add	x0, sp, #0x28
   836a0:	940003ec 	bl	84650 <DWHCIRegisterAnd>
   836a4:	9100a3e0 	add	x0, sp, #0x28
   836a8:	94000372 	bl	84470 <DWHCIRegisterWrite>
   836ac:	aa1303e0 	mov	x0, x19
   836b0:	97ffffb8 	bl	83590 <DWHCIDeviceReset>
   836b4:	2a0003f4 	mov	w20, w0
   836b8:	340010a0 	cbz	w0, 838cc <DWHCIDeviceInitCore+0x26c>
   836bc:	9100a3e0 	add	x0, sp, #0x28
   836c0:	94000354 	bl	84410 <DWHCIRegisterRead>
   836c4:	12800201 	mov	w1, #0xffffffef            	// #-17
   836c8:	9100a3e0 	add	x0, sp, #0x28
   836cc:	940003e1 	bl	84650 <DWHCIRegisterAnd>
   836d0:	12800101 	mov	w1, #0xfffffff7            	// #-9
   836d4:	9100a3e0 	add	x0, sp, #0x28
   836d8:	940003de 	bl	84650 <DWHCIRegisterAnd>
   836dc:	9100a3e0 	add	x0, sp, #0x28
   836e0:	94000364 	bl	84470 <DWHCIRegisterWrite>
   836e4:	d2800901 	mov	x1, #0x48                  	// #72
   836e8:	f2a7f301 	movk	x1, #0x3f98, lsl #16
   836ec:	910103e0 	add	x0, sp, #0x40
   836f0:	940002fc 	bl	842e0 <DWHCIRegister>
   836f4:	910103e0 	add	x0, sp, #0x40
   836f8:	94000346 	bl	84410 <DWHCIRegisterRead>
   836fc:	910103e0 	add	x0, sp, #0x40
   83700:	9400037c 	bl	844f0 <DWHCIRegisterGet>
   83704:	53031000 	ubfx	w0, w0, #3, #2
   83708:	7100081f 	cmp	w0, #0x2
   8370c:	54000841 	b.ne	83814 <DWHCIDeviceInitCore+0x1b4>  // b.any
   83710:	9100a3e0 	add	x0, sp, #0x28
   83714:	9400033f 	bl	84410 <DWHCIRegisterRead>
   83718:	910103e0 	add	x0, sp, #0x40
   8371c:	94000375 	bl	844f0 <DWHCIRegisterGet>
   83720:	53061c00 	ubfx	w0, w0, #6, #2
   83724:	7100081f 	cmp	w0, #0x2
   83728:	54000900 	b.eq	83848 <DWHCIDeviceInitCore+0x1e8>  // b.none
   8372c:	12a00041 	mov	w1, #0xfffdffff            	// #-131073
   83730:	9100a3e0 	add	x0, sp, #0x28
   83734:	940003c7 	bl	84650 <DWHCIRegisterAnd>
   83738:	12a00101 	mov	w1, #0xfff7ffff            	// #-524289
   8373c:	9100a3e0 	add	x0, sp, #0x28
   83740:	940003c4 	bl	84650 <DWHCIRegisterAnd>
   83744:	9100a3e0 	add	x0, sp, #0x28
   83748:	9400034a 	bl	84470 <DWHCIRegisterWrite>
   8374c:	b9400260 	ldr	w0, [x19]
   83750:	35000940 	cbnz	w0, 83878 <DWHCIDeviceInitCore+0x218>
   83754:	910103e0 	add	x0, sp, #0x40
   83758:	94000366 	bl	844f0 <DWHCIRegisterGet>
   8375c:	530e4400 	ubfx	w0, w0, #14, #4
   83760:	11000401 	add	w1, w0, #0x1
   83764:	b9000261 	str	w1, [x19]
   83768:	51000c00 	sub	w0, w0, #0x3
   8376c:	7100301f 	cmp	w0, #0xc
   83770:	54000a08 	b.hi	838b0 <DWHCIDeviceInitCore+0x250>  // b.pmore
   83774:	d2800101 	mov	x1, #0x8                   	// #8
   83778:	f2a7f301 	movk	x1, #0x3f98, lsl #16
   8377c:	910163e0 	add	x0, sp, #0x58
   83780:	940002d8 	bl	842e0 <DWHCIRegister>
   83784:	910163e0 	add	x0, sp, #0x58
   83788:	94000322 	bl	84410 <DWHCIRegisterRead>
   8378c:	910163e0 	add	x0, sp, #0x58
   83790:	52800401 	mov	w1, #0x20                  	// #32
   83794:	940003d3 	bl	846e0 <DWHCIRegisterOr>
   83798:	52800034 	mov	w20, #0x1                   	// #1
   8379c:	910163e0 	add	x0, sp, #0x58
   837a0:	52800201 	mov	w1, #0x10                  	// #16
   837a4:	940003cf 	bl	846e0 <DWHCIRegisterOr>
   837a8:	128000c1 	mov	w1, #0xfffffff9            	// #-7
   837ac:	910163e0 	add	x0, sp, #0x58
   837b0:	940003a8 	bl	84650 <DWHCIRegisterAnd>
   837b4:	910163e0 	add	x0, sp, #0x58
   837b8:	9400032e 	bl	84470 <DWHCIRegisterWrite>
   837bc:	9100a3e0 	add	x0, sp, #0x28
   837c0:	94000314 	bl	84410 <DWHCIRegisterRead>
   837c4:	9100a3e0 	add	x0, sp, #0x28
   837c8:	12804001 	mov	w1, #0xfffffdff            	// #-513
   837cc:	940003a1 	bl	84650 <DWHCIRegisterAnd>
   837d0:	12802001 	mov	w1, #0xfffffeff            	// #-257
   837d4:	9100a3e0 	add	x0, sp, #0x28
   837d8:	9400039e 	bl	84650 <DWHCIRegisterAnd>
   837dc:	9100a3e0 	add	x0, sp, #0x28
   837e0:	94000324 	bl	84470 <DWHCIRegisterWrite>
   837e4:	aa1303e0 	mov	x0, x19
   837e8:	97fff8a2 	bl	81a70 <DWHCIDeviceEnableCommonInterrupts>
   837ec:	910163e0 	add	x0, sp, #0x58
   837f0:	940002f4 	bl	843c0 <_DWHCIRegister>
   837f4:	910103e0 	add	x0, sp, #0x40
   837f8:	940002f2 	bl	843c0 <_DWHCIRegister>
   837fc:	9100a3e0 	add	x0, sp, #0x28
   83800:	940002f0 	bl	843c0 <_DWHCIRegister>
   83804:	2a1403e0 	mov	w0, w20
   83808:	a94153f3 	ldp	x19, x20, [sp, #16]
   8380c:	a8c77bfd 	ldp	x29, x30, [sp], #112
   83810:	d65f03c0 	ret
   83814:	f00000a1 	adrp	x1, 9a000 <CSWTCH.1+0x10>
   83818:	91000021 	add	x1, x1, #0x0
   8381c:	52802fc2 	mov	w2, #0x17e                 	// #382
   83820:	f00000a0 	adrp	x0, 9a000 <CSWTCH.1+0x10>
   83824:	910b4000 	add	x0, x0, #0x2d0
   83828:	97fff406 	bl	80840 <uspi_assertion_failed>
   8382c:	9100a3e0 	add	x0, sp, #0x28
   83830:	940002f8 	bl	84410 <DWHCIRegisterRead>
   83834:	910103e0 	add	x0, sp, #0x40
   83838:	9400032e 	bl	844f0 <DWHCIRegisterGet>
   8383c:	53061c00 	ubfx	w0, w0, #6, #2
   83840:	7100081f 	cmp	w0, #0x2
   83844:	54fff741 	b.ne	8372c <DWHCIDeviceInitCore+0xcc>  // b.any
   83848:	910103e0 	add	x0, sp, #0x40
   8384c:	94000329 	bl	844f0 <DWHCIRegisterGet>
   83850:	53082400 	ubfx	w0, w0, #8, #2
   83854:	7100041f 	cmp	w0, #0x1
   83858:	54fff6a1 	b.ne	8372c <DWHCIDeviceInitCore+0xcc>  // b.any
   8385c:	9100a3e0 	add	x0, sp, #0x28
   83860:	52a00041 	mov	w1, #0x20000               	// #131072
   83864:	9400039f 	bl	846e0 <DWHCIRegisterOr>
   83868:	52a00101 	mov	w1, #0x80000               	// #524288
   8386c:	9100a3e0 	add	x0, sp, #0x28
   83870:	9400039c 	bl	846e0 <DWHCIRegisterOr>
   83874:	17ffffb4 	b	83744 <DWHCIDeviceInitCore+0xe4>
   83878:	f00000a1 	adrp	x1, 9a000 <CSWTCH.1+0x10>
   8387c:	91000021 	add	x1, x1, #0x0
   83880:	528031c2 	mov	w2, #0x18e                 	// #398
   83884:	f00000a0 	adrp	x0, 9a000 <CSWTCH.1+0x10>
   83888:	910c6000 	add	x0, x0, #0x318
   8388c:	97fff3ed 	bl	80840 <uspi_assertion_failed>
   83890:	910103e0 	add	x0, sp, #0x40
   83894:	94000317 	bl	844f0 <DWHCIRegisterGet>
   83898:	530e4400 	ubfx	w0, w0, #14, #4
   8389c:	11000401 	add	w1, w0, #0x1
   838a0:	b9000261 	str	w1, [x19]
   838a4:	51000c00 	sub	w0, w0, #0x3
   838a8:	7100301f 	cmp	w0, #0xc
   838ac:	54fff649 	b.ls	83774 <DWHCIDeviceInitCore+0x114>  // b.plast
   838b0:	f00000a1 	adrp	x1, 9a000 <CSWTCH.1+0x10>
   838b4:	f00000a0 	adrp	x0, 9a000 <CSWTCH.1+0x10>
   838b8:	91000021 	add	x1, x1, #0x0
   838bc:	910cc000 	add	x0, x0, #0x330
   838c0:	52803202 	mov	w2, #0x190                 	// #400
   838c4:	97fff3df 	bl	80840 <uspi_assertion_failed>
   838c8:	17ffffab 	b	83774 <DWHCIDeviceInitCore+0x114>
   838cc:	52800021 	mov	w1, #0x1                   	// #1
   838d0:	f00000a2 	adrp	x2, 9a000 <CSWTCH.1+0x10>
   838d4:	d00000a0 	adrp	x0, 99000 <_ZN8CGPIOPin7SetModeE9TGPIOModei+0x50>
   838d8:	910b0042 	add	x2, x2, #0x2c0
   838dc:	913fa000 	add	x0, x0, #0xfe8
   838e0:	97fff3b0 	bl	807a0 <LogWrite>
   838e4:	2a1403e0 	mov	w0, w20
   838e8:	a94153f3 	ldp	x19, x20, [sp, #16]
   838ec:	a8c77bfd 	ldp	x29, x30, [sp], #112
   838f0:	d65f03c0 	ret
   838f4:	f00000a1 	adrp	x1, 9a000 <CSWTCH.1+0x10>
   838f8:	f00000a0 	adrp	x0, 9a000 <CSWTCH.1+0x10>
   838fc:	91000021 	add	x1, x1, #0x0
   83900:	91004000 	add	x0, x0, #0x10
   83904:	52802cc2 	mov	w2, #0x166                 	// #358
   83908:	97fff3ce 	bl	80840 <uspi_assertion_failed>
   8390c:	17ffff5a 	b	83674 <DWHCIDeviceInitCore+0x14>

0000000000083910 <DWHCIDeviceFlushTxFIFO>:
   83910:	a9bc7bfd 	stp	x29, x30, [sp, #-64]!
   83914:	910003fd 	mov	x29, sp
   83918:	a90153f3 	stp	x19, x20, [sp, #16]
   8391c:	aa0003f3 	mov	x19, x0
   83920:	2a0103f4 	mov	w20, w1
   83924:	b4000480 	cbz	x0, 839b4 <DWHCIDeviceFlushTxFIFO+0xa4>
   83928:	52800002 	mov	w2, #0x0                   	// #0
   8392c:	9100a3e0 	add	x0, sp, #0x28
   83930:	d2800201 	mov	x1, #0x10                  	// #16
   83934:	f2a7f301 	movk	x1, #0x3f98, lsl #16
   83938:	94000282 	bl	84340 <DWHCIRegister2>
   8393c:	9100a3e0 	add	x0, sp, #0x28
   83940:	52800401 	mov	w1, #0x20                  	// #32
   83944:	94000367 	bl	846e0 <DWHCIRegisterOr>
   83948:	9100a3e0 	add	x0, sp, #0x28
   8394c:	1280f801 	mov	w1, #0xfffff83f            	// #-1985
   83950:	94000340 	bl	84650 <DWHCIRegisterAnd>
   83954:	531a6681 	lsl	w1, w20, #6
   83958:	9100a3e0 	add	x0, sp, #0x28
   8395c:	94000361 	bl	846e0 <DWHCIRegisterOr>
   83960:	9100a3e0 	add	x0, sp, #0x28
   83964:	940002c3 	bl	84470 <DWHCIRegisterWrite>
   83968:	aa1303e0 	mov	x0, x19
   8396c:	9100a3e1 	add	x1, sp, #0x28
   83970:	52800144 	mov	w4, #0xa                   	// #10
   83974:	52800003 	mov	w3, #0x0                   	// #0
   83978:	52800402 	mov	w2, #0x20                  	// #32
   8397c:	97fffe85 	bl	83390 <DWHCIDeviceWaitForBit>
   83980:	350000c0 	cbnz	w0, 83998 <DWHCIDeviceFlushTxFIFO+0x88>
   83984:	9100a3e0 	add	x0, sp, #0x28
   83988:	9400028e 	bl	843c0 <_DWHCIRegister>
   8398c:	a94153f3 	ldp	x19, x20, [sp, #16]
   83990:	a8c47bfd 	ldp	x29, x30, [sp], #64
   83994:	d65f03c0 	ret
   83998:	52800020 	mov	w0, #0x1                   	// #1
   8399c:	97fff311 	bl	805e0 <usDelay>
   839a0:	9100a3e0 	add	x0, sp, #0x28
   839a4:	94000287 	bl	843c0 <_DWHCIRegister>
   839a8:	a94153f3 	ldp	x19, x20, [sp, #16]
   839ac:	a8c47bfd 	ldp	x29, x30, [sp], #64
   839b0:	d65f03c0 	ret
   839b4:	f00000a1 	adrp	x1, 9a000 <CSWTCH.1+0x10>
   839b8:	f00000a0 	adrp	x0, 9a000 <CSWTCH.1+0x10>
   839bc:	91000021 	add	x1, x1, #0x0
   839c0:	91004000 	add	x0, x0, #0x10
   839c4:	52805382 	mov	w2, #0x29c                 	// #668
   839c8:	97fff39e 	bl	80840 <uspi_assertion_failed>
   839cc:	17ffffd7 	b	83928 <DWHCIDeviceFlushTxFIFO+0x18>

00000000000839d0 <DWHCIDeviceFlushRxFIFO>:
   839d0:	a9bc7bfd 	stp	x29, x30, [sp, #-64]!
   839d4:	910003fd 	mov	x29, sp
   839d8:	f9000bf3 	str	x19, [sp, #16]
   839dc:	aa0003f3 	mov	x19, x0
   839e0:	b40003c0 	cbz	x0, 83a58 <DWHCIDeviceFlushRxFIFO+0x88>
   839e4:	52800002 	mov	w2, #0x0                   	// #0
   839e8:	9100a3e0 	add	x0, sp, #0x28
   839ec:	d2800201 	mov	x1, #0x10                  	// #16
   839f0:	f2a7f301 	movk	x1, #0x3f98, lsl #16
   839f4:	94000253 	bl	84340 <DWHCIRegister2>
   839f8:	52800201 	mov	w1, #0x10                  	// #16
   839fc:	9100a3e0 	add	x0, sp, #0x28
   83a00:	94000338 	bl	846e0 <DWHCIRegisterOr>
   83a04:	9100a3e0 	add	x0, sp, #0x28
   83a08:	9400029a 	bl	84470 <DWHCIRegisterWrite>
   83a0c:	aa1303e0 	mov	x0, x19
   83a10:	9100a3e1 	add	x1, sp, #0x28
   83a14:	52800144 	mov	w4, #0xa                   	// #10
   83a18:	52800003 	mov	w3, #0x0                   	// #0
   83a1c:	52800202 	mov	w2, #0x10                  	// #16
   83a20:	97fffe5c 	bl	83390 <DWHCIDeviceWaitForBit>
   83a24:	350000c0 	cbnz	w0, 83a3c <DWHCIDeviceFlushRxFIFO+0x6c>
   83a28:	9100a3e0 	add	x0, sp, #0x28
   83a2c:	94000265 	bl	843c0 <_DWHCIRegister>
   83a30:	f9400bf3 	ldr	x19, [sp, #16]
   83a34:	a8c47bfd 	ldp	x29, x30, [sp], #64
   83a38:	d65f03c0 	ret
   83a3c:	52800020 	mov	w0, #0x1                   	// #1
   83a40:	97fff2e8 	bl	805e0 <usDelay>
   83a44:	9100a3e0 	add	x0, sp, #0x28
   83a48:	9400025e 	bl	843c0 <_DWHCIRegister>
   83a4c:	f9400bf3 	ldr	x19, [sp, #16]
   83a50:	a8c47bfd 	ldp	x29, x30, [sp], #64
   83a54:	d65f03c0 	ret
   83a58:	f00000a1 	adrp	x1, 9a000 <CSWTCH.1+0x10>
   83a5c:	f00000a0 	adrp	x0, 9a000 <CSWTCH.1+0x10>
   83a60:	91000021 	add	x1, x1, #0x0
   83a64:	91004000 	add	x0, x0, #0x10
   83a68:	528055e2 	mov	w2, #0x2af                 	// #687
   83a6c:	97fff375 	bl	80840 <uspi_assertion_failed>
   83a70:	17ffffdd 	b	839e4 <DWHCIDeviceFlushRxFIFO+0x14>
   83a74:	d503201f 	nop
   83a78:	d503201f 	nop
   83a7c:	d503201f 	nop

0000000000083a80 <DWHCIDeviceInitHost>:
   83a80:	a9b27bfd 	stp	x29, x30, [sp, #-224]!
   83a84:	910003fd 	mov	x29, sp
   83a88:	a90153f3 	stp	x19, x20, [sp, #16]
   83a8c:	aa0003f3 	mov	x19, x0
   83a90:	b4000fe0 	cbz	x0, 83c8c <DWHCIDeviceInitHost+0x20c>
   83a94:	52800002 	mov	w2, #0x0                   	// #0
   83a98:	d281c001 	mov	x1, #0xe00                 	// #3584
   83a9c:	f2a7f301 	movk	x1, #0x3f98, lsl #16
   83aa0:	910083e0 	add	x0, sp, #0x20
   83aa4:	94000227 	bl	84340 <DWHCIRegister2>
   83aa8:	910083e0 	add	x0, sp, #0x20
   83aac:	94000271 	bl	84470 <DWHCIRegisterWrite>
   83ab0:	d2808001 	mov	x1, #0x400                 	// #1024
   83ab4:	f2a7f301 	movk	x1, #0x3f98, lsl #16
   83ab8:	9100e3e0 	add	x0, sp, #0x38
   83abc:	94000209 	bl	842e0 <DWHCIRegister>
   83ac0:	9100e3e0 	add	x0, sp, #0x38
   83ac4:	94000253 	bl	84410 <DWHCIRegisterRead>
   83ac8:	9100e3e0 	add	x0, sp, #0x38
   83acc:	12800061 	mov	w1, #0xfffffffc            	// #-4
   83ad0:	940002e0 	bl	84650 <DWHCIRegisterAnd>
   83ad4:	910143e0 	add	x0, sp, #0x50
   83ad8:	d2800901 	mov	x1, #0x48                  	// #72
   83adc:	f2a7f301 	movk	x1, #0x3f98, lsl #16
   83ae0:	94000200 	bl	842e0 <DWHCIRegister>
   83ae4:	d2800181 	mov	x1, #0xc                   	// #12
   83ae8:	f2a7f301 	movk	x1, #0x3f98, lsl #16
   83aec:	9101a3e0 	add	x0, sp, #0x68
   83af0:	940001fc 	bl	842e0 <DWHCIRegister>
   83af4:	910143e0 	add	x0, sp, #0x50
   83af8:	94000246 	bl	84410 <DWHCIRegisterRead>
   83afc:	53061c00 	ubfx	w0, w0, #6, #2
   83b00:	7100081f 	cmp	w0, #0x2
   83b04:	540009e0 	b.eq	83c40 <DWHCIDeviceInitHost+0x1c0>  // b.none
   83b08:	52800001 	mov	w1, #0x0                   	// #0
   83b0c:	9100e3e0 	add	x0, sp, #0x38
   83b10:	940002f4 	bl	846e0 <DWHCIRegisterOr>
   83b14:	9100e3e0 	add	x0, sp, #0x38
   83b18:	94000256 	bl	84470 <DWHCIRegisterWrite>
   83b1c:	52808002 	mov	w2, #0x400                 	// #1024
   83b20:	d2800481 	mov	x1, #0x24                  	// #36
   83b24:	f2a7f301 	movk	x1, #0x3f98, lsl #16
   83b28:	910203e0 	add	x0, sp, #0x80
   83b2c:	94000205 	bl	84340 <DWHCIRegister2>
   83b30:	910203e0 	add	x0, sp, #0x80
   83b34:	9400024f 	bl	84470 <DWHCIRegisterWrite>
   83b38:	52800002 	mov	w2, #0x0                   	// #0
   83b3c:	910263e0 	add	x0, sp, #0x98
   83b40:	d2800501 	mov	x1, #0x28                  	// #40
   83b44:	f2a7f301 	movk	x1, #0x3f98, lsl #16
   83b48:	940001fe 	bl	84340 <DWHCIRegister2>
   83b4c:	910263e0 	add	x0, sp, #0x98
   83b50:	52808001 	mov	w1, #0x400                 	// #1024
   83b54:	940002e3 	bl	846e0 <DWHCIRegisterOr>
   83b58:	52a08001 	mov	w1, #0x4000000             	// #67108864
   83b5c:	910263e0 	add	x0, sp, #0x98
   83b60:	940002e0 	bl	846e0 <DWHCIRegisterOr>
   83b64:	910263e0 	add	x0, sp, #0x98
   83b68:	94000242 	bl	84470 <DWHCIRegisterWrite>
   83b6c:	52800002 	mov	w2, #0x0                   	// #0
   83b70:	9102c3e0 	add	x0, sp, #0xb0
   83b74:	d2802001 	mov	x1, #0x100                 	// #256
   83b78:	f2a7f301 	movk	x1, #0x3f98, lsl #16
   83b7c:	940001f1 	bl	84340 <DWHCIRegister2>
   83b80:	9102c3e0 	add	x0, sp, #0xb0
   83b84:	52810001 	mov	w1, #0x800                 	// #2048
   83b88:	940002d6 	bl	846e0 <DWHCIRegisterOr>
   83b8c:	52a08001 	mov	w1, #0x4000000             	// #67108864
   83b90:	9102c3e0 	add	x0, sp, #0xb0
   83b94:	940002d3 	bl	846e0 <DWHCIRegisterOr>
   83b98:	9102c3e0 	add	x0, sp, #0xb0
   83b9c:	94000235 	bl	84470 <DWHCIRegisterWrite>
   83ba0:	52800201 	mov	w1, #0x10                  	// #16
   83ba4:	aa1303e0 	mov	x0, x19
   83ba8:	97ffff5a 	bl	83910 <DWHCIDeviceFlushTxFIFO>
   83bac:	aa1303e0 	mov	x0, x19
   83bb0:	97ffff88 	bl	839d0 <DWHCIDeviceFlushRxFIFO>
   83bb4:	d2808801 	mov	x1, #0x440                 	// #1088
   83bb8:	f2a7f301 	movk	x1, #0x3f98, lsl #16
   83bbc:	910323e0 	add	x0, sp, #0xc8
   83bc0:	940001c8 	bl	842e0 <DWHCIRegister>
   83bc4:	910323e0 	add	x0, sp, #0xc8
   83bc8:	94000212 	bl	84410 <DWHCIRegisterRead>
   83bcc:	128005c1 	mov	w1, #0xffffffd1            	// #-47
   83bd0:	910323e0 	add	x0, sp, #0xc8
   83bd4:	9400029f 	bl	84650 <DWHCIRegisterAnd>
   83bd8:	910323e0 	add	x0, sp, #0xc8
   83bdc:	94000245 	bl	844f0 <DWHCIRegisterGet>
   83be0:	7214001f 	tst	w0, #0x1000
   83be4:	54000480 	b.eq	83c74 <DWHCIDeviceInitHost+0x1f4>  // b.none
   83be8:	aa1303e0 	mov	x0, x19
   83bec:	97fff7b9 	bl	81ad0 <DWHCIDeviceEnableHostInterrupts>
   83bf0:	910323e0 	add	x0, sp, #0xc8
   83bf4:	940001f3 	bl	843c0 <_DWHCIRegister>
   83bf8:	9102c3e0 	add	x0, sp, #0xb0
   83bfc:	940001f1 	bl	843c0 <_DWHCIRegister>
   83c00:	910263e0 	add	x0, sp, #0x98
   83c04:	940001ef 	bl	843c0 <_DWHCIRegister>
   83c08:	910203e0 	add	x0, sp, #0x80
   83c0c:	940001ed 	bl	843c0 <_DWHCIRegister>
   83c10:	9101a3e0 	add	x0, sp, #0x68
   83c14:	940001eb 	bl	843c0 <_DWHCIRegister>
   83c18:	910143e0 	add	x0, sp, #0x50
   83c1c:	940001e9 	bl	843c0 <_DWHCIRegister>
   83c20:	9100e3e0 	add	x0, sp, #0x38
   83c24:	940001e7 	bl	843c0 <_DWHCIRegister>
   83c28:	910083e0 	add	x0, sp, #0x20
   83c2c:	940001e5 	bl	843c0 <_DWHCIRegister>
   83c30:	52800020 	mov	w0, #0x1                   	// #1
   83c34:	a94153f3 	ldp	x19, x20, [sp, #16]
   83c38:	a8ce7bfd 	ldp	x29, x30, [sp], #224
   83c3c:	d65f03c0 	ret
   83c40:	910143e0 	add	x0, sp, #0x50
   83c44:	9400022b 	bl	844f0 <DWHCIRegisterGet>
   83c48:	53082414 	ubfx	w20, w0, #8, #2
   83c4c:	7100069f 	cmp	w20, #0x1
   83c50:	54fff5c1 	b.ne	83b08 <DWHCIDeviceInitHost+0x88>  // b.any
   83c54:	9101a3e0 	add	x0, sp, #0x68
   83c58:	940001ee 	bl	84410 <DWHCIRegisterRead>
   83c5c:	720f001f 	tst	w0, #0x20000
   83c60:	54fff540 	b.eq	83b08 <DWHCIDeviceInitHost+0x88>  // b.none
   83c64:	2a1403e1 	mov	w1, w20
   83c68:	9100e3e0 	add	x0, sp, #0x38
   83c6c:	9400029d 	bl	846e0 <DWHCIRegisterOr>
   83c70:	17ffffa9 	b	83b14 <DWHCIDeviceInitHost+0x94>
   83c74:	52820001 	mov	w1, #0x1000                	// #4096
   83c78:	910323e0 	add	x0, sp, #0xc8
   83c7c:	94000299 	bl	846e0 <DWHCIRegisterOr>
   83c80:	910323e0 	add	x0, sp, #0xc8
   83c84:	940001fb 	bl	84470 <DWHCIRegisterWrite>
   83c88:	17ffffd8 	b	83be8 <DWHCIDeviceInitHost+0x168>
   83c8c:	f00000a1 	adrp	x1, 9a000 <CSWTCH.1+0x10>
   83c90:	f00000a0 	adrp	x0, 9a000 <CSWTCH.1+0x10>
   83c94:	91000021 	add	x1, x1, #0x0
   83c98:	91004000 	add	x0, x0, #0x10
   83c9c:	528035a2 	mov	w2, #0x1ad                 	// #429
   83ca0:	97fff2e8 	bl	80840 <uspi_assertion_failed>
   83ca4:	17ffff7c 	b	83a94 <DWHCIDeviceInitHost+0x14>
   83ca8:	d503201f 	nop
   83cac:	d503201f 	nop

0000000000083cb0 <DWHCIDeviceInitialize>:
   83cb0:	a9bb7bfd 	stp	x29, x30, [sp, #-80]!
   83cb4:	910003fd 	mov	x29, sp
   83cb8:	a90153f3 	stp	x19, x20, [sp, #16]
   83cbc:	aa0003f3 	mov	x19, x0
   83cc0:	b4000ac0 	cbz	x0, 83e18 <DWHCIDeviceInitialize+0x168>
   83cc4:	d5033fbf 	dmb	sy
   83cc8:	d2800801 	mov	x1, #0x40                  	// #64
   83ccc:	f2a7f301 	movk	x1, #0x3f98, lsl #16
   83cd0:	910083e0 	add	x0, sp, #0x20
   83cd4:	94000183 	bl	842e0 <DWHCIRegister>
   83cd8:	910083e0 	add	x0, sp, #0x20
   83cdc:	940001cd 	bl	84410 <DWHCIRegisterRead>
   83ce0:	52850141 	mov	w1, #0x280a                	// #10250
   83ce4:	72a9ea81 	movk	w1, #0x4f54, lsl #16
   83ce8:	6b01001f 	cmp	w0, w1
   83cec:	540005a1 	b.ne	83da0 <DWHCIDeviceInitialize+0xf0>  // b.any
   83cf0:	52800060 	mov	w0, #0x3                   	// #3
   83cf4:	97fff273 	bl	806c0 <SetPowerStateOn>
   83cf8:	340009e0 	cbz	w0, 83e34 <DWHCIDeviceInitialize+0x184>
   83cfc:	d2800101 	mov	x1, #0x8                   	// #8
   83d00:	f2a7f301 	movk	x1, #0x3f98, lsl #16
   83d04:	9100e3e0 	add	x0, sp, #0x38
   83d08:	94000176 	bl	842e0 <DWHCIRegister>
   83d0c:	9100e3e0 	add	x0, sp, #0x38
   83d10:	940001c0 	bl	84410 <DWHCIRegisterRead>
   83d14:	12800021 	mov	w1, #0xfffffffe            	// #-2
   83d18:	9100e3e0 	add	x0, sp, #0x38
   83d1c:	9400024d 	bl	84650 <DWHCIRegisterAnd>
   83d20:	9100e3e0 	add	x0, sp, #0x38
   83d24:	940001d3 	bl	84470 <DWHCIRegisterWrite>
   83d28:	aa1303e2 	mov	x2, x19
   83d2c:	90000001 	adrp	x1, 83000 <DWHCIDeviceChannelInterruptHandler+0x270>
   83d30:	91090021 	add	x1, x1, #0x240
   83d34:	52800120 	mov	w0, #0x9                   	// #9
   83d38:	97fff252 	bl	80680 <ConnectInterrupt>
   83d3c:	aa1303e0 	mov	x0, x19
   83d40:	97fffe48 	bl	83660 <DWHCIDeviceInitCore>
   83d44:	2a0003f4 	mov	w20, w0
   83d48:	34000900 	cbz	w0, 83e68 <DWHCIDeviceInitialize+0x1b8>
   83d4c:	aa1303e0 	mov	x0, x19
   83d50:	97fff72c 	bl	81a00 <DWHCIDeviceEnableGlobalInterrupts>
   83d54:	aa1303e0 	mov	x0, x19
   83d58:	97ffff4a 	bl	83a80 <DWHCIDeviceInitHost>
   83d5c:	2a0003f4 	mov	w20, w0
   83d60:	34000400 	cbz	w0, 83de0 <DWHCIDeviceInitialize+0x130>
   83d64:	aa1303e0 	mov	x0, x19
   83d68:	97fffdce 	bl	834a0 <DWHCIDeviceEnableRootPort>
   83d6c:	f00000a2 	adrp	x2, 9a000 <CSWTCH.1+0x10>
   83d70:	910f4042 	add	x2, x2, #0x3d0
   83d74:	34000880 	cbz	w0, 83e84 <DWHCIDeviceInitialize+0x1d4>
   83d78:	912c4260 	add	x0, x19, #0xb10
   83d7c:	94002afd 	bl	8e970 <DWHCIRootPortInitialize>
   83d80:	340007e0 	cbz	w0, 83e7c <DWHCIDeviceInitialize+0x1cc>
   83d84:	d5033fbf 	dmb	sy
   83d88:	9100e3e0 	add	x0, sp, #0x38
   83d8c:	9400018d 	bl	843c0 <_DWHCIRegister>
   83d90:	52800034 	mov	w20, #0x1                   	// #1
   83d94:	910083e0 	add	x0, sp, #0x20
   83d98:	9400018a 	bl	843c0 <_DWHCIRegister>
   83d9c:	1400000d 	b	83dd0 <DWHCIDeviceInitialize+0x120>
   83da0:	910083e0 	add	x0, sp, #0x20
   83da4:	940001d3 	bl	844f0 <DWHCIRegisterGet>
   83da8:	f00000a2 	adrp	x2, 9a000 <CSWTCH.1+0x10>
   83dac:	2a0003e3 	mov	w3, w0
   83db0:	910de042 	add	x2, x2, #0x378
   83db4:	52800021 	mov	w1, #0x1                   	// #1
   83db8:	d00000a0 	adrp	x0, 99000 <_ZN8CGPIOPin7SetModeE9TGPIOModei+0x50>
   83dbc:	913fa000 	add	x0, x0, #0xfe8
   83dc0:	97fff278 	bl	807a0 <LogWrite>
   83dc4:	52800014 	mov	w20, #0x0                   	// #0
   83dc8:	910083e0 	add	x0, sp, #0x20
   83dcc:	9400017d 	bl	843c0 <_DWHCIRegister>
   83dd0:	2a1403e0 	mov	w0, w20
   83dd4:	a94153f3 	ldp	x19, x20, [sp, #16]
   83dd8:	a8c57bfd 	ldp	x29, x30, [sp], #80
   83ddc:	d65f03c0 	ret
   83de0:	f00000a2 	adrp	x2, 9a000 <CSWTCH.1+0x10>
   83de4:	910ee042 	add	x2, x2, #0x3b8
   83de8:	52800021 	mov	w1, #0x1                   	// #1
   83dec:	d00000a0 	adrp	x0, 99000 <_ZN8CGPIOPin7SetModeE9TGPIOModei+0x50>
   83df0:	913fa000 	add	x0, x0, #0xfe8
   83df4:	97fff26b 	bl	807a0 <LogWrite>
   83df8:	9100e3e0 	add	x0, sp, #0x38
   83dfc:	94000171 	bl	843c0 <_DWHCIRegister>
   83e00:	910083e0 	add	x0, sp, #0x20
   83e04:	9400016f 	bl	843c0 <_DWHCIRegister>
   83e08:	2a1403e0 	mov	w0, w20
   83e0c:	a94153f3 	ldp	x19, x20, [sp, #16]
   83e10:	a8c57bfd 	ldp	x29, x30, [sp], #80
   83e14:	d65f03c0 	ret
   83e18:	f00000a1 	adrp	x1, 9a000 <CSWTCH.1+0x10>
   83e1c:	f00000a0 	adrp	x0, 9a000 <CSWTCH.1+0x10>
   83e20:	91000021 	add	x1, x1, #0x0
   83e24:	91004000 	add	x0, x0, #0x10
   83e28:	52800dc2 	mov	w2, #0x6e                  	// #110
   83e2c:	97fff285 	bl	80840 <uspi_assertion_failed>
   83e30:	17ffffa5 	b	83cc4 <DWHCIDeviceInitialize+0x14>
   83e34:	f00000a2 	adrp	x2, 9a000 <CSWTCH.1+0x10>
   83e38:	910e4042 	add	x2, x2, #0x390
   83e3c:	52800021 	mov	w1, #0x1                   	// #1
   83e40:	d00000a0 	adrp	x0, 99000 <_ZN8CGPIOPin7SetModeE9TGPIOModei+0x50>
   83e44:	913fa000 	add	x0, x0, #0xfe8
   83e48:	97fff256 	bl	807a0 <LogWrite>
   83e4c:	910083e0 	add	x0, sp, #0x20
   83e50:	52800014 	mov	w20, #0x0                   	// #0
   83e54:	9400015b 	bl	843c0 <_DWHCIRegister>
   83e58:	2a1403e0 	mov	w0, w20
   83e5c:	a94153f3 	ldp	x19, x20, [sp, #16]
   83e60:	a8c57bfd 	ldp	x29, x30, [sp], #80
   83e64:	d65f03c0 	ret
   83e68:	f00000a2 	adrp	x2, 9a000 <CSWTCH.1+0x10>
   83e6c:	910e8042 	add	x2, x2, #0x3a0
   83e70:	52800021 	mov	w1, #0x1                   	// #1
   83e74:	d00000a0 	adrp	x0, 99000 <_ZN8CGPIOPin7SetModeE9TGPIOModei+0x50>
   83e78:	17ffffde 	b	83df0 <DWHCIDeviceInitialize+0x140>
   83e7c:	f00000a2 	adrp	x2, 9a000 <CSWTCH.1+0x10>
   83e80:	910fe042 	add	x2, x2, #0x3f8
   83e84:	52800041 	mov	w1, #0x2                   	// #2
   83e88:	d00000a0 	adrp	x0, 99000 <_ZN8CGPIOPin7SetModeE9TGPIOModei+0x50>
   83e8c:	52800034 	mov	w20, #0x1                   	// #1
   83e90:	17ffffd8 	b	83df0 <DWHCIDeviceInitialize+0x140>
   83e94:	d503201f 	nop
   83e98:	d503201f 	nop
   83e9c:	d503201f 	nop

0000000000083ea0 <DWHCIDeviceGetPortSpeed>:
   83ea0:	a9bc7bfd 	stp	x29, x30, [sp, #-64]!
   83ea4:	910003fd 	mov	x29, sp
   83ea8:	f9000bf3 	str	x19, [sp, #16]
   83eac:	b4000380 	cbz	x0, 83f1c <DWHCIDeviceGetPortSpeed+0x7c>
   83eb0:	d2808801 	mov	x1, #0x440                 	// #1088
   83eb4:	f2a7f301 	movk	x1, #0x3f98, lsl #16
   83eb8:	9100a3e0 	add	x0, sp, #0x28
   83ebc:	94000109 	bl	842e0 <DWHCIRegister>
   83ec0:	9100a3e0 	add	x0, sp, #0x28
   83ec4:	94000153 	bl	84410 <DWHCIRegisterRead>
   83ec8:	53114800 	ubfx	w0, w0, #17, #2
   83ecc:	52800073 	mov	w19, #0x3                   	// #3
   83ed0:	6b13001f 	cmp	w0, w19
   83ed4:	540000e1 	b.ne	83ef0 <DWHCIDeviceGetPortSpeed+0x50>  // b.any
   83ed8:	9100a3e0 	add	x0, sp, #0x28
   83edc:	94000139 	bl	843c0 <_DWHCIRegister>
   83ee0:	2a1303e0 	mov	w0, w19
   83ee4:	f9400bf3 	ldr	x19, [sp, #16]
   83ee8:	a8c47bfd 	ldp	x29, x30, [sp], #64
   83eec:	d65f03c0 	ret
   83ef0:	d00000a1 	adrp	x1, 99000 <_ZN8CGPIOPin7SetModeE9TGPIOModei+0x50>
   83ef4:	913fa021 	add	x1, x1, #0xfe8
   83ef8:	91002021 	add	x1, x1, #0x8
   83efc:	2a0003e0 	mov	w0, w0
   83f00:	b8607833 	ldr	w19, [x1, x0, lsl #2]
   83f04:	9100a3e0 	add	x0, sp, #0x28
   83f08:	9400012e 	bl	843c0 <_DWHCIRegister>
   83f0c:	2a1303e0 	mov	w0, w19
   83f10:	f9400bf3 	ldr	x19, [sp, #16]
   83f14:	a8c47bfd 	ldp	x29, x30, [sp], #64
   83f18:	d65f03c0 	ret
   83f1c:	f00000a1 	adrp	x1, 9a000 <CSWTCH.1+0x10>
   83f20:	f00000a0 	adrp	x0, 9a000 <CSWTCH.1+0x10>
   83f24:	91000021 	add	x1, x1, #0x0
   83f28:	91004000 	add	x0, x0, #0x10
   83f2c:	5280a3e2 	mov	w2, #0x51f                 	// #1311
   83f30:	97fff244 	bl	80840 <uspi_assertion_failed>
   83f34:	17ffffdf 	b	83eb0 <DWHCIDeviceGetPortSpeed+0x10>
   83f38:	d503201f 	nop
   83f3c:	d503201f 	nop

0000000000083f40 <DWHCIDeviceOvercurrentDetected>:
   83f40:	a9bd7bfd 	stp	x29, x30, [sp, #-48]!
   83f44:	910003fd 	mov	x29, sp
   83f48:	b4000240 	cbz	x0, 83f90 <DWHCIDeviceOvercurrentDetected+0x50>
   83f4c:	d2808801 	mov	x1, #0x440                 	// #1088
   83f50:	f2a7f301 	movk	x1, #0x3f98, lsl #16
   83f54:	910063e0 	add	x0, sp, #0x18
   83f58:	940000e2 	bl	842e0 <DWHCIRegister>
   83f5c:	910063e0 	add	x0, sp, #0x18
   83f60:	9400012c 	bl	84410 <DWHCIRegisterRead>
   83f64:	721c001f 	tst	w0, #0x10
   83f68:	910063e0 	add	x0, sp, #0x18
   83f6c:	540000a1 	b.ne	83f80 <DWHCIDeviceOvercurrentDetected+0x40>  // b.any
   83f70:	94000114 	bl	843c0 <_DWHCIRegister>
   83f74:	52800000 	mov	w0, #0x0                   	// #0
   83f78:	a8c37bfd 	ldp	x29, x30, [sp], #48
   83f7c:	d65f03c0 	ret
   83f80:	94000110 	bl	843c0 <_DWHCIRegister>
   83f84:	52800020 	mov	w0, #0x1                   	// #1
   83f88:	a8c37bfd 	ldp	x29, x30, [sp], #48
   83f8c:	d65f03c0 	ret
   83f90:	f00000a1 	adrp	x1, 9a000 <CSWTCH.1+0x10>
   83f94:	f00000a0 	adrp	x0, 9a000 <CSWTCH.1+0x10>
   83f98:	91000021 	add	x1, x1, #0x0
   83f9c:	91004000 	add	x0, x0, #0x10
   83fa0:	5280a7e2 	mov	w2, #0x53f                 	// #1343
   83fa4:	97fff227 	bl	80840 <uspi_assertion_failed>
   83fa8:	17ffffe9 	b	83f4c <DWHCIDeviceOvercurrentDetected+0xc>
   83fac:	d503201f 	nop

0000000000083fb0 <DWHCIDeviceDisableRootPort>:
   83fb0:	a9bd7bfd 	stp	x29, x30, [sp, #-48]!
   83fb4:	910003fd 	mov	x29, sp
   83fb8:	b4000200 	cbz	x0, 83ff8 <DWHCIDeviceDisableRootPort+0x48>
   83fbc:	d2808801 	mov	x1, #0x440                 	// #1088
   83fc0:	f2a7f301 	movk	x1, #0x3f98, lsl #16
   83fc4:	910063e0 	add	x0, sp, #0x18
   83fc8:	940000c6 	bl	842e0 <DWHCIRegister>
   83fcc:	910063e0 	add	x0, sp, #0x18
   83fd0:	94000110 	bl	84410 <DWHCIRegisterRead>
   83fd4:	12820001 	mov	w1, #0xffffefff            	// #-4097
   83fd8:	910063e0 	add	x0, sp, #0x18
   83fdc:	9400019d 	bl	84650 <DWHCIRegisterAnd>
   83fe0:	910063e0 	add	x0, sp, #0x18
   83fe4:	94000123 	bl	84470 <DWHCIRegisterWrite>
   83fe8:	910063e0 	add	x0, sp, #0x18
   83fec:	940000f5 	bl	843c0 <_DWHCIRegister>
   83ff0:	a8c37bfd 	ldp	x29, x30, [sp], #48
   83ff4:	d65f03c0 	ret
   83ff8:	f00000a1 	adrp	x1, 9a000 <CSWTCH.1+0x10>
   83ffc:	f00000a0 	adrp	x0, 9a000 <CSWTCH.1+0x10>
   84000:	91000021 	add	x1, x1, #0x0
   84004:	91004000 	add	x0, x0, #0x10
   84008:	5280aa42 	mov	w2, #0x552                 	// #1362
   8400c:	97fff20d 	bl	80840 <uspi_assertion_failed>
   84010:	17ffffeb 	b	83fbc <DWHCIDeviceDisableRootPort+0xc>
   84014:	d503201f 	nop
   84018:	d503201f 	nop
   8401c:	d503201f 	nop

0000000000084020 <DWHCIDeviceDumpRegister>:
   84020:	a9bb7bfd 	stp	x29, x30, [sp, #-80]!
   84024:	aa0103e4 	mov	x4, x1
   84028:	910003fd 	mov	x29, sp
   8402c:	f9000bf3 	str	x19, [sp, #16]
   84030:	2a0203f3 	mov	w19, w2
   84034:	b40002a0 	cbz	x0, 84088 <DWHCIDeviceDumpRegister+0x68>
   84038:	2a1303e1 	mov	w1, w19
   8403c:	9100e3e0 	add	x0, sp, #0x38
   84040:	f90017e4 	str	x4, [sp, #40]
   84044:	940000a7 	bl	842e0 <DWHCIRegister>
   84048:	d5033fbf 	dmb	sy
   8404c:	9100e3e0 	add	x0, sp, #0x38
   84050:	940000f0 	bl	84410 <DWHCIRegisterRead>
   84054:	f94017e4 	ldr	x4, [sp, #40]
   84058:	2a0003e3 	mov	w3, w0
   8405c:	d00000a2 	adrp	x2, 9a000 <CSWTCH.1+0x10>
   84060:	91106042 	add	x2, x2, #0x418
   84064:	52800081 	mov	w1, #0x4                   	// #4
   84068:	b00000a0 	adrp	x0, 99000 <_ZN8CGPIOPin7SetModeE9TGPIOModei+0x50>
   8406c:	913fa000 	add	x0, x0, #0xfe8
   84070:	97fff1cc 	bl	807a0 <LogWrite>
   84074:	9100e3e0 	add	x0, sp, #0x38
   84078:	940000d2 	bl	843c0 <_DWHCIRegister>
   8407c:	f9400bf3 	ldr	x19, [sp, #16]
   84080:	a8c57bfd 	ldp	x29, x30, [sp], #80
   84084:	d65f03c0 	ret
   84088:	d00000a1 	adrp	x1, 9a000 <CSWTCH.1+0x10>
   8408c:	d00000a0 	adrp	x0, 9a000 <CSWTCH.1+0x10>
   84090:	91000021 	add	x1, x1, #0x0
   84094:	91004000 	add	x0, x0, #0x10
   84098:	5280ac42 	mov	w2, #0x562                 	// #1378
   8409c:	f90017e4 	str	x4, [sp, #40]
   840a0:	97fff1e8 	bl	80840 <uspi_assertion_failed>
   840a4:	f94017e4 	ldr	x4, [sp, #40]
   840a8:	17ffffe4 	b	84038 <DWHCIDeviceDumpRegister+0x18>
   840ac:	d503201f 	nop

00000000000840b0 <DWHCIDeviceDumpStatus>:
   840b0:	a9be7bfd 	stp	x29, x30, [sp, #-32]!
   840b4:	910003fd 	mov	x29, sp
   840b8:	a90153f3 	stp	x19, x20, [sp, #16]
   840bc:	aa0003f3 	mov	x19, x0
   840c0:	2a0103f4 	mov	w20, w1
   840c4:	b4000fc0 	cbz	x0, 842bc <DWHCIDeviceDumpStatus+0x20c>
   840c8:	aa1303e0 	mov	x0, x19
   840cc:	52a7f302 	mov	w2, #0x3f980000            	// #1066926080
   840d0:	d00000a1 	adrp	x1, 9a000 <CSWTCH.1+0x10>
   840d4:	9110a021 	add	x1, x1, #0x428
   840d8:	97ffffd2 	bl	84020 <DWHCIDeviceDumpRegister>
   840dc:	aa1303e0 	mov	x0, x19
   840e0:	d00000a1 	adrp	x1, 9a000 <CSWTCH.1+0x10>
   840e4:	52800102 	mov	w2, #0x8                   	// #8
   840e8:	72a7f302 	movk	w2, #0x3f98, lsl #16
   840ec:	9110e021 	add	x1, x1, #0x438
   840f0:	97ffffcc 	bl	84020 <DWHCIDeviceDumpRegister>
   840f4:	aa1303e0 	mov	x0, x19
   840f8:	d00000a1 	adrp	x1, 9a000 <CSWTCH.1+0x10>
   840fc:	52800182 	mov	w2, #0xc                   	// #12
   84100:	72a7f302 	movk	w2, #0x3f98, lsl #16
   84104:	91110021 	add	x1, x1, #0x440
   84108:	97ffffc6 	bl	84020 <DWHCIDeviceDumpRegister>
   8410c:	aa1303e0 	mov	x0, x19
   84110:	d00000a1 	adrp	x1, 9a000 <CSWTCH.1+0x10>
   84114:	52800202 	mov	w2, #0x10                  	// #16
   84118:	72a7f302 	movk	w2, #0x3f98, lsl #16
   8411c:	91112021 	add	x1, x1, #0x448
   84120:	97ffffc0 	bl	84020 <DWHCIDeviceDumpRegister>
   84124:	aa1303e0 	mov	x0, x19
   84128:	d00000a1 	adrp	x1, 9a000 <CSWTCH.1+0x10>
   8412c:	52800282 	mov	w2, #0x14                  	// #20
   84130:	72a7f302 	movk	w2, #0x3f98, lsl #16
   84134:	91114021 	add	x1, x1, #0x450
   84138:	97ffffba 	bl	84020 <DWHCIDeviceDumpRegister>
   8413c:	aa1303e0 	mov	x0, x19
   84140:	d00000a1 	adrp	x1, 9a000 <CSWTCH.1+0x10>
   84144:	52800302 	mov	w2, #0x18                  	// #24
   84148:	72a7f302 	movk	w2, #0x3f98, lsl #16
   8414c:	91118021 	add	x1, x1, #0x460
   84150:	97ffffb4 	bl	84020 <DWHCIDeviceDumpRegister>
   84154:	aa1303e0 	mov	x0, x19
   84158:	d00000a1 	adrp	x1, 9a000 <CSWTCH.1+0x10>
   8415c:	52800482 	mov	w2, #0x24                  	// #36
   84160:	72a7f302 	movk	w2, #0x3f98, lsl #16
   84164:	9111c021 	add	x1, x1, #0x470
   84168:	97ffffae 	bl	84020 <DWHCIDeviceDumpRegister>
   8416c:	aa1303e0 	mov	x0, x19
   84170:	d00000a1 	adrp	x1, 9a000 <CSWTCH.1+0x10>
   84174:	52800502 	mov	w2, #0x28                  	// #40
   84178:	72a7f302 	movk	w2, #0x3f98, lsl #16
   8417c:	91120021 	add	x1, x1, #0x480
   84180:	97ffffa8 	bl	84020 <DWHCIDeviceDumpRegister>
   84184:	aa1303e0 	mov	x0, x19
   84188:	d00000a1 	adrp	x1, 9a000 <CSWTCH.1+0x10>
   8418c:	52800582 	mov	w2, #0x2c                  	// #44
   84190:	72a7f302 	movk	w2, #0x3f98, lsl #16
   84194:	91126021 	add	x1, x1, #0x498
   84198:	97ffffa2 	bl	84020 <DWHCIDeviceDumpRegister>
   8419c:	aa1303e0 	mov	x0, x19
   841a0:	d00000a1 	adrp	x1, 9a000 <CSWTCH.1+0x10>
   841a4:	52802002 	mov	w2, #0x100                 	// #256
   841a8:	72a7f302 	movk	w2, #0x3f98, lsl #16
   841ac:	9112a021 	add	x1, x1, #0x4a8
   841b0:	97ffff9c 	bl	84020 <DWHCIDeviceDumpRegister>
   841b4:	aa1303e0 	mov	x0, x19
   841b8:	d00000a1 	adrp	x1, 9a000 <CSWTCH.1+0x10>
   841bc:	52808002 	mov	w2, #0x400                 	// #1024
   841c0:	72a7f302 	movk	w2, #0x3f98, lsl #16
   841c4:	91130021 	add	x1, x1, #0x4c0
   841c8:	97ffff96 	bl	84020 <DWHCIDeviceDumpRegister>
   841cc:	aa1303e0 	mov	x0, x19
   841d0:	d00000a1 	adrp	x1, 9a000 <CSWTCH.1+0x10>
   841d4:	52808202 	mov	w2, #0x410                 	// #1040
   841d8:	72a7f302 	movk	w2, #0x3f98, lsl #16
   841dc:	91134021 	add	x1, x1, #0x4d0
   841e0:	97ffff90 	bl	84020 <DWHCIDeviceDumpRegister>
   841e4:	aa1303e0 	mov	x0, x19
   841e8:	d00000a1 	adrp	x1, 9a000 <CSWTCH.1+0x10>
   841ec:	52808282 	mov	w2, #0x414                 	// #1044
   841f0:	72a7f302 	movk	w2, #0x3f98, lsl #16
   841f4:	9113a021 	add	x1, x1, #0x4e8
   841f8:	97ffff8a 	bl	84020 <DWHCIDeviceDumpRegister>
   841fc:	aa1303e0 	mov	x0, x19
   84200:	d00000a1 	adrp	x1, 9a000 <CSWTCH.1+0x10>
   84204:	52808302 	mov	w2, #0x418                 	// #1048
   84208:	72a7f302 	movk	w2, #0x3f98, lsl #16
   8420c:	91140021 	add	x1, x1, #0x500
   84210:	97ffff84 	bl	84020 <DWHCIDeviceDumpRegister>
   84214:	aa1303e0 	mov	x0, x19
   84218:	d00000a1 	adrp	x1, 9a000 <CSWTCH.1+0x10>
   8421c:	52808802 	mov	w2, #0x440                 	// #1088
   84220:	72a7f302 	movk	w2, #0x3f98, lsl #16
   84224:	91146021 	add	x1, x1, #0x518
   84228:	97ffff7e 	bl	84020 <DWHCIDeviceDumpRegister>
   8422c:	52980500 	mov	w0, #0xc028                	// #49192
   84230:	72a03f80 	movk	w0, #0x1fc, lsl #16
   84234:	0b000294 	add	w20, w20, w0
   84238:	d00000a1 	adrp	x1, 9a000 <CSWTCH.1+0x10>
   8423c:	aa1303e0 	mov	x0, x19
   84240:	9114a021 	add	x1, x1, #0x528
   84244:	531b6a94 	lsl	w20, w20, #5
   84248:	2a1403e2 	mov	w2, w20
   8424c:	97ffff75 	bl	84020 <DWHCIDeviceDumpRegister>
   84250:	11001282 	add	w2, w20, #0x4
   84254:	aa1303e0 	mov	x0, x19
   84258:	d00000a1 	adrp	x1, 9a000 <CSWTCH.1+0x10>
   8425c:	91150021 	add	x1, x1, #0x540
   84260:	97ffff70 	bl	84020 <DWHCIDeviceDumpRegister>
   84264:	11002282 	add	w2, w20, #0x8
   84268:	aa1303e0 	mov	x0, x19
   8426c:	d00000a1 	adrp	x1, 9a000 <CSWTCH.1+0x10>
   84270:	91156021 	add	x1, x1, #0x558
   84274:	97ffff6b 	bl	84020 <DWHCIDeviceDumpRegister>
   84278:	11003282 	add	w2, w20, #0xc
   8427c:	aa1303e0 	mov	x0, x19
   84280:	d00000a1 	adrp	x1, 9a000 <CSWTCH.1+0x10>
   84284:	9115c021 	add	x1, x1, #0x570
   84288:	97ffff66 	bl	84020 <DWHCIDeviceDumpRegister>
   8428c:	11004282 	add	w2, w20, #0x10
   84290:	aa1303e0 	mov	x0, x19
   84294:	d00000a1 	adrp	x1, 9a000 <CSWTCH.1+0x10>
   84298:	91162021 	add	x1, x1, #0x588
   8429c:	97ffff61 	bl	84020 <DWHCIDeviceDumpRegister>
   842a0:	11005282 	add	w2, w20, #0x14
   842a4:	aa1303e0 	mov	x0, x19
   842a8:	a94153f3 	ldp	x19, x20, [sp, #16]
   842ac:	d00000a1 	adrp	x1, 9a000 <CSWTCH.1+0x10>
   842b0:	91168021 	add	x1, x1, #0x5a0
   842b4:	a8c27bfd 	ldp	x29, x30, [sp], #32
   842b8:	17ffff5a 	b	84020 <DWHCIDeviceDumpRegister>
   842bc:	d00000a1 	adrp	x1, 9a000 <CSWTCH.1+0x10>
   842c0:	d00000a0 	adrp	x0, 9a000 <CSWTCH.1+0x10>
   842c4:	91000021 	add	x1, x1, #0x0
   842c8:	91004000 	add	x0, x0, #0x10
   842cc:	5280ae02 	mov	w2, #0x570                 	// #1392
   842d0:	97fff15c 	bl	80840 <uspi_assertion_failed>
   842d4:	17ffff7d 	b	840c8 <DWHCIDeviceDumpStatus+0x18>
	...

00000000000842e0 <DWHCIRegister>:
   842e0:	a9be7bfd 	stp	x29, x30, [sp, #-32]!
   842e4:	910003fd 	mov	x29, sp
   842e8:	a90153f3 	stp	x19, x20, [sp, #16]
   842ec:	aa0003f3 	mov	x19, x0
   842f0:	aa0103f4 	mov	x20, x1
   842f4:	b40000c0 	cbz	x0, 8430c <DWHCIRegister+0x2c>
   842f8:	b900027f 	str	wzr, [x19]
   842fc:	f9000674 	str	x20, [x19, #8]
   84300:	a94153f3 	ldp	x19, x20, [sp, #16]
   84304:	a8c27bfd 	ldp	x29, x30, [sp], #32
   84308:	d65f03c0 	ret
   8430c:	52800342 	mov	w2, #0x1a                  	// #26
   84310:	d00000a1 	adrp	x1, 9a000 <CSWTCH.1+0x10>
   84314:	d00000a0 	adrp	x0, 9a000 <CSWTCH.1+0x10>
   84318:	9116e021 	add	x1, x1, #0x5b8
   8431c:	91004000 	add	x0, x0, #0x10
   84320:	97fff148 	bl	80840 <uspi_assertion_failed>
   84324:	b900027f 	str	wzr, [x19]
   84328:	f9000674 	str	x20, [x19, #8]
   8432c:	a94153f3 	ldp	x19, x20, [sp, #16]
   84330:	a8c27bfd 	ldp	x29, x30, [sp], #32
   84334:	d65f03c0 	ret
   84338:	d503201f 	nop
   8433c:	d503201f 	nop

0000000000084340 <DWHCIRegister2>:
   84340:	a9bd7bfd 	stp	x29, x30, [sp, #-48]!
   84344:	910003fd 	mov	x29, sp
   84348:	a90153f3 	stp	x19, x20, [sp, #16]
   8434c:	aa0003f3 	mov	x19, x0
   84350:	2a0203f4 	mov	w20, w2
   84354:	f90013f5 	str	x21, [sp, #32]
   84358:	aa0103f5 	mov	x21, x1
   8435c:	b4000120 	cbz	x0, 84380 <DWHCIRegister2+0x40>
   84360:	52800020 	mov	w0, #0x1                   	// #1
   84364:	b9000260 	str	w0, [x19]
   84368:	f9000675 	str	x21, [x19, #8]
   8436c:	b9001274 	str	w20, [x19, #16]
   84370:	a94153f3 	ldp	x19, x20, [sp, #16]
   84374:	f94013f5 	ldr	x21, [sp, #32]
   84378:	a8c37bfd 	ldp	x29, x30, [sp], #48
   8437c:	d65f03c0 	ret
   84380:	52800422 	mov	w2, #0x21                  	// #33
   84384:	d00000a1 	adrp	x1, 9a000 <CSWTCH.1+0x10>
   84388:	d00000a0 	adrp	x0, 9a000 <CSWTCH.1+0x10>
   8438c:	9116e021 	add	x1, x1, #0x5b8
   84390:	91004000 	add	x0, x0, #0x10
   84394:	97fff12b 	bl	80840 <uspi_assertion_failed>
   84398:	52800020 	mov	w0, #0x1                   	// #1
   8439c:	b9000260 	str	w0, [x19]
   843a0:	f9000675 	str	x21, [x19, #8]
   843a4:	b9001274 	str	w20, [x19, #16]
   843a8:	a94153f3 	ldp	x19, x20, [sp, #16]
   843ac:	f94013f5 	ldr	x21, [sp, #32]
   843b0:	a8c37bfd 	ldp	x29, x30, [sp], #48
   843b4:	d65f03c0 	ret
   843b8:	d503201f 	nop
   843bc:	d503201f 	nop

00000000000843c0 <_DWHCIRegister>:
   843c0:	a9be7bfd 	stp	x29, x30, [sp, #-32]!
   843c4:	910003fd 	mov	x29, sp
   843c8:	f9000bf3 	str	x19, [sp, #16]
   843cc:	aa0003f3 	mov	x19, x0
   843d0:	b40000a0 	cbz	x0, 843e4 <_DWHCIRegister+0x24>
   843d4:	b900027f 	str	wzr, [x19]
   843d8:	f9400bf3 	ldr	x19, [sp, #16]
   843dc:	a8c27bfd 	ldp	x29, x30, [sp], #32
   843e0:	d65f03c0 	ret
   843e4:	52800522 	mov	w2, #0x29                  	// #41
   843e8:	d00000a1 	adrp	x1, 9a000 <CSWTCH.1+0x10>
   843ec:	d00000a0 	adrp	x0, 9a000 <CSWTCH.1+0x10>
   843f0:	9116e021 	add	x1, x1, #0x5b8
   843f4:	91004000 	add	x0, x0, #0x10
   843f8:	97fff112 	bl	80840 <uspi_assertion_failed>
   843fc:	b900027f 	str	wzr, [x19]
   84400:	f9400bf3 	ldr	x19, [sp, #16]
   84404:	a8c27bfd 	ldp	x29, x30, [sp], #32
   84408:	d65f03c0 	ret
   8440c:	d503201f 	nop

0000000000084410 <DWHCIRegisterRead>:
   84410:	a9be7bfd 	stp	x29, x30, [sp, #-32]!
   84414:	910003fd 	mov	x29, sp
   84418:	f9000bf3 	str	x19, [sp, #16]
   8441c:	aa0003f3 	mov	x19, x0
   84420:	b4000140 	cbz	x0, 84448 <DWHCIRegisterRead+0x38>
   84424:	f9400661 	ldr	x1, [x19, #8]
   84428:	52800020 	mov	w0, #0x1                   	// #1
   8442c:	b9400021 	ldr	w1, [x1]
   84430:	b9000260 	str	w0, [x19]
   84434:	b9001261 	str	w1, [x19, #16]
   84438:	2a0103e0 	mov	w0, w1
   8443c:	f9400bf3 	ldr	x19, [sp, #16]
   84440:	a8c27bfd 	ldp	x29, x30, [sp], #32
   84444:	d65f03c0 	ret
   84448:	d00000a1 	adrp	x1, 9a000 <CSWTCH.1+0x10>
   8444c:	d00000a0 	adrp	x0, 9a000 <CSWTCH.1+0x10>
   84450:	9116e021 	add	x1, x1, #0x5b8
   84454:	91004000 	add	x0, x0, #0x10
   84458:	528005e2 	mov	w2, #0x2f                  	// #47
   8445c:	97fff0f9 	bl	80840 <uspi_assertion_failed>
   84460:	17fffff1 	b	84424 <DWHCIRegisterRead+0x14>
   84464:	d503201f 	nop
   84468:	d503201f 	nop
   8446c:	d503201f 	nop

0000000000084470 <DWHCIRegisterWrite>:
   84470:	a9be7bfd 	stp	x29, x30, [sp, #-32]!
   84474:	910003fd 	mov	x29, sp
   84478:	f9000bf3 	str	x19, [sp, #16]
   8447c:	aa0003f3 	mov	x19, x0
   84480:	b40002a0 	cbz	x0, 844d4 <DWHCIRegisterWrite+0x64>
   84484:	b9400260 	ldr	w0, [x19]
   84488:	340000e0 	cbz	w0, 844a4 <DWHCIRegisterWrite+0x34>
   8448c:	f9400660 	ldr	x0, [x19, #8]
   84490:	b9401261 	ldr	w1, [x19, #16]
   84494:	f9400bf3 	ldr	x19, [sp, #16]
   84498:	b9000001 	str	w1, [x0]
   8449c:	a8c27bfd 	ldp	x29, x30, [sp], #32
   844a0:	d65f03c0 	ret
   844a4:	52800722 	mov	w2, #0x39                  	// #57
   844a8:	d00000a1 	adrp	x1, 9a000 <CSWTCH.1+0x10>
   844ac:	d00000a0 	adrp	x0, 9a000 <CSWTCH.1+0x10>
   844b0:	9116e021 	add	x1, x1, #0x5b8
   844b4:	91172000 	add	x0, x0, #0x5c8
   844b8:	97fff0e2 	bl	80840 <uspi_assertion_failed>
   844bc:	f9400660 	ldr	x0, [x19, #8]
   844c0:	b9401261 	ldr	w1, [x19, #16]
   844c4:	f9400bf3 	ldr	x19, [sp, #16]
   844c8:	b9000001 	str	w1, [x0]
   844cc:	a8c27bfd 	ldp	x29, x30, [sp], #32
   844d0:	d65f03c0 	ret
   844d4:	d00000a1 	adrp	x1, 9a000 <CSWTCH.1+0x10>
   844d8:	d00000a0 	adrp	x0, 9a000 <CSWTCH.1+0x10>
   844dc:	9116e021 	add	x1, x1, #0x5b8
   844e0:	91004000 	add	x0, x0, #0x10
   844e4:	52800702 	mov	w2, #0x38                  	// #56
   844e8:	97fff0d6 	bl	80840 <uspi_assertion_failed>
   844ec:	17ffffe6 	b	84484 <DWHCIRegisterWrite+0x14>

00000000000844f0 <DWHCIRegisterGet>:
   844f0:	a9be7bfd 	stp	x29, x30, [sp, #-32]!
   844f4:	910003fd 	mov	x29, sp
   844f8:	f9000bf3 	str	x19, [sp, #16]
   844fc:	aa0003f3 	mov	x19, x0
   84500:	b4000220 	cbz	x0, 84544 <DWHCIRegisterGet+0x54>
   84504:	b9400260 	ldr	w0, [x19]
   84508:	340000a0 	cbz	w0, 8451c <DWHCIRegisterGet+0x2c>
   8450c:	b9401260 	ldr	w0, [x19, #16]
   84510:	f9400bf3 	ldr	x19, [sp, #16]
   84514:	a8c27bfd 	ldp	x29, x30, [sp], #32
   84518:	d65f03c0 	ret
   8451c:	52800802 	mov	w2, #0x40                  	// #64
   84520:	d00000a1 	adrp	x1, 9a000 <CSWTCH.1+0x10>
   84524:	d00000a0 	adrp	x0, 9a000 <CSWTCH.1+0x10>
   84528:	9116e021 	add	x1, x1, #0x5b8
   8452c:	91172000 	add	x0, x0, #0x5c8
   84530:	97fff0c4 	bl	80840 <uspi_assertion_failed>
   84534:	b9401260 	ldr	w0, [x19, #16]
   84538:	f9400bf3 	ldr	x19, [sp, #16]
   8453c:	a8c27bfd 	ldp	x29, x30, [sp], #32
   84540:	d65f03c0 	ret
   84544:	d00000a1 	adrp	x1, 9a000 <CSWTCH.1+0x10>
   84548:	d00000a0 	adrp	x0, 9a000 <CSWTCH.1+0x10>
   8454c:	9116e021 	add	x1, x1, #0x5b8
   84550:	91004000 	add	x0, x0, #0x10
   84554:	528007e2 	mov	w2, #0x3f                  	// #63
   84558:	97fff0ba 	bl	80840 <uspi_assertion_failed>
   8455c:	17ffffea 	b	84504 <DWHCIRegisterGet+0x14>

0000000000084560 <DWHCIRegisterSet>:
   84560:	a9be7bfd 	stp	x29, x30, [sp, #-32]!
   84564:	910003fd 	mov	x29, sp
   84568:	a90153f3 	stp	x19, x20, [sp, #16]
   8456c:	aa0003f3 	mov	x19, x0
   84570:	2a0103f4 	mov	w20, w1
   84574:	b40000e0 	cbz	x0, 84590 <DWHCIRegisterSet+0x30>
   84578:	52800020 	mov	w0, #0x1                   	// #1
   8457c:	b9000260 	str	w0, [x19]
   84580:	b9001274 	str	w20, [x19, #16]
   84584:	a94153f3 	ldp	x19, x20, [sp, #16]
   84588:	a8c27bfd 	ldp	x29, x30, [sp], #32
   8458c:	d65f03c0 	ret
   84590:	528008c2 	mov	w2, #0x46                  	// #70
   84594:	d00000a1 	adrp	x1, 9a000 <CSWTCH.1+0x10>
   84598:	d00000a0 	adrp	x0, 9a000 <CSWTCH.1+0x10>
   8459c:	9116e021 	add	x1, x1, #0x5b8
   845a0:	91004000 	add	x0, x0, #0x10
   845a4:	97fff0a7 	bl	80840 <uspi_assertion_failed>
   845a8:	52800020 	mov	w0, #0x1                   	// #1
   845ac:	b9000260 	str	w0, [x19]
   845b0:	b9001274 	str	w20, [x19, #16]
   845b4:	a94153f3 	ldp	x19, x20, [sp, #16]
   845b8:	a8c27bfd 	ldp	x29, x30, [sp], #32
   845bc:	d65f03c0 	ret

00000000000845c0 <DWHCIRegisterIsSet>:
   845c0:	a9be7bfd 	stp	x29, x30, [sp, #-32]!
   845c4:	910003fd 	mov	x29, sp
   845c8:	a90153f3 	stp	x19, x20, [sp, #16]
   845cc:	aa0003f3 	mov	x19, x0
   845d0:	2a0103f4 	mov	w20, w1
   845d4:	b40002a0 	cbz	x0, 84628 <DWHCIRegisterIsSet+0x68>
   845d8:	b9400260 	ldr	w0, [x19]
   845dc:	340000e0 	cbz	w0, 845f8 <DWHCIRegisterIsSet+0x38>
   845e0:	b9401260 	ldr	w0, [x19, #16]
   845e4:	6a00029f 	tst	w20, w0
   845e8:	1a9f07e0 	cset	w0, ne  // ne = any
   845ec:	a94153f3 	ldp	x19, x20, [sp, #16]
   845f0:	a8c27bfd 	ldp	x29, x30, [sp], #32
   845f4:	d65f03c0 	ret
   845f8:	528009c2 	mov	w2, #0x4e                  	// #78
   845fc:	d00000a1 	adrp	x1, 9a000 <CSWTCH.1+0x10>
   84600:	d00000a0 	adrp	x0, 9a000 <CSWTCH.1+0x10>
   84604:	9116e021 	add	x1, x1, #0x5b8
   84608:	91172000 	add	x0, x0, #0x5c8
   8460c:	97fff08d 	bl	80840 <uspi_assertion_failed>
   84610:	b9401260 	ldr	w0, [x19, #16]
   84614:	6a00029f 	tst	w20, w0
   84618:	1a9f07e0 	cset	w0, ne  // ne = any
   8461c:	a94153f3 	ldp	x19, x20, [sp, #16]
   84620:	a8c27bfd 	ldp	x29, x30, [sp], #32
   84624:	d65f03c0 	ret
   84628:	d00000a1 	adrp	x1, 9a000 <CSWTCH.1+0x10>
   8462c:	d00000a0 	adrp	x0, 9a000 <CSWTCH.1+0x10>
   84630:	9116e021 	add	x1, x1, #0x5b8
   84634:	91004000 	add	x0, x0, #0x10
   84638:	528009a2 	mov	w2, #0x4d                  	// #77
   8463c:	97fff081 	bl	80840 <uspi_assertion_failed>
   84640:	17ffffe6 	b	845d8 <DWHCIRegisterIsSet+0x18>
   84644:	d503201f 	nop
   84648:	d503201f 	nop
   8464c:	d503201f 	nop

0000000000084650 <DWHCIRegisterAnd>:
   84650:	a9be7bfd 	stp	x29, x30, [sp, #-32]!
   84654:	910003fd 	mov	x29, sp
   84658:	a90153f3 	stp	x19, x20, [sp, #16]
   8465c:	aa0003f3 	mov	x19, x0
   84660:	2a0103f4 	mov	w20, w1
   84664:	b40002a0 	cbz	x0, 846b8 <DWHCIRegisterAnd+0x68>
   84668:	b9400260 	ldr	w0, [x19]
   8466c:	340000e0 	cbz	w0, 84688 <DWHCIRegisterAnd+0x38>
   84670:	b9401261 	ldr	w1, [x19, #16]
   84674:	0a140021 	and	w1, w1, w20
   84678:	b9001261 	str	w1, [x19, #16]
   8467c:	a94153f3 	ldp	x19, x20, [sp, #16]
   84680:	a8c27bfd 	ldp	x29, x30, [sp], #32
   84684:	d65f03c0 	ret
   84688:	52800aa2 	mov	w2, #0x55                  	// #85
   8468c:	d00000a1 	adrp	x1, 9a000 <CSWTCH.1+0x10>
   84690:	d00000a0 	adrp	x0, 9a000 <CSWTCH.1+0x10>
   84694:	9116e021 	add	x1, x1, #0x5b8
   84698:	91172000 	add	x0, x0, #0x5c8
   8469c:	97fff069 	bl	80840 <uspi_assertion_failed>
   846a0:	b9401261 	ldr	w1, [x19, #16]
   846a4:	0a140021 	and	w1, w1, w20
   846a8:	b9001261 	str	w1, [x19, #16]
   846ac:	a94153f3 	ldp	x19, x20, [sp, #16]
   846b0:	a8c27bfd 	ldp	x29, x30, [sp], #32
   846b4:	d65f03c0 	ret
   846b8:	d00000a1 	adrp	x1, 9a000 <CSWTCH.1+0x10>
   846bc:	d00000a0 	adrp	x0, 9a000 <CSWTCH.1+0x10>
   846c0:	9116e021 	add	x1, x1, #0x5b8
   846c4:	91004000 	add	x0, x0, #0x10
   846c8:	52800a82 	mov	w2, #0x54                  	// #84
   846cc:	97fff05d 	bl	80840 <uspi_assertion_failed>
   846d0:	17ffffe6 	b	84668 <DWHCIRegisterAnd+0x18>
   846d4:	d503201f 	nop
   846d8:	d503201f 	nop
   846dc:	d503201f 	nop

00000000000846e0 <DWHCIRegisterOr>:
   846e0:	a9be7bfd 	stp	x29, x30, [sp, #-32]!
   846e4:	910003fd 	mov	x29, sp
   846e8:	a90153f3 	stp	x19, x20, [sp, #16]
   846ec:	aa0003f3 	mov	x19, x0
   846f0:	2a0103f4 	mov	w20, w1
   846f4:	b40002a0 	cbz	x0, 84748 <DWHCIRegisterOr+0x68>
   846f8:	b9400260 	ldr	w0, [x19]
   846fc:	340000e0 	cbz	w0, 84718 <DWHCIRegisterOr+0x38>
   84700:	b9401261 	ldr	w1, [x19, #16]
   84704:	2a140021 	orr	w1, w1, w20
   84708:	b9001261 	str	w1, [x19, #16]
   8470c:	a94153f3 	ldp	x19, x20, [sp, #16]
   84710:	a8c27bfd 	ldp	x29, x30, [sp], #32
   84714:	d65f03c0 	ret
   84718:	52800b82 	mov	w2, #0x5c                  	// #92
   8471c:	d00000a1 	adrp	x1, 9a000 <CSWTCH.1+0x10>
   84720:	d00000a0 	adrp	x0, 9a000 <CSWTCH.1+0x10>
   84724:	9116e021 	add	x1, x1, #0x5b8
   84728:	91172000 	add	x0, x0, #0x5c8
   8472c:	97fff045 	bl	80840 <uspi_assertion_failed>
   84730:	b9401261 	ldr	w1, [x19, #16]
   84734:	2a140021 	orr	w1, w1, w20
   84738:	b9001261 	str	w1, [x19, #16]
   8473c:	a94153f3 	ldp	x19, x20, [sp, #16]
   84740:	a8c27bfd 	ldp	x29, x30, [sp], #32
   84744:	d65f03c0 	ret
   84748:	d00000a1 	adrp	x1, 9a000 <CSWTCH.1+0x10>
   8474c:	d00000a0 	adrp	x0, 9a000 <CSWTCH.1+0x10>
   84750:	9116e021 	add	x1, x1, #0x5b8
   84754:	91004000 	add	x0, x0, #0x10
   84758:	52800b62 	mov	w2, #0x5b                  	// #91
   8475c:	97fff039 	bl	80840 <uspi_assertion_failed>
   84760:	17ffffe6 	b	846f8 <DWHCIRegisterOr+0x18>
   84764:	d503201f 	nop
   84768:	d503201f 	nop
   8476c:	d503201f 	nop

0000000000084770 <DWHCIRegisterClearBit>:
   84770:	a9be7bfd 	stp	x29, x30, [sp, #-32]!
   84774:	910003fd 	mov	x29, sp
   84778:	a90153f3 	stp	x19, x20, [sp, #16]
   8477c:	aa0003f3 	mov	x19, x0
   84780:	2a0103f4 	mov	w20, w1
   84784:	b4000460 	cbz	x0, 84810 <DWHCIRegisterClearBit+0xa0>
   84788:	b9400260 	ldr	w0, [x19]
   8478c:	34000160 	cbz	w0, 847b8 <DWHCIRegisterClearBit+0x48>
   84790:	71007e9f 	cmp	w20, #0x1f
   84794:	54000228 	b.hi	847d8 <DWHCIRegisterClearBit+0x68>  // b.pmore
   84798:	b9401260 	ldr	w0, [x19, #16]
   8479c:	52800021 	mov	w1, #0x1                   	// #1
   847a0:	1ad42021 	lsl	w1, w1, w20
   847a4:	0a210001 	bic	w1, w0, w1
   847a8:	b9001261 	str	w1, [x19, #16]
   847ac:	a94153f3 	ldp	x19, x20, [sp, #16]
   847b0:	a8c27bfd 	ldp	x29, x30, [sp], #32
   847b4:	d65f03c0 	ret
   847b8:	d00000a1 	adrp	x1, 9a000 <CSWTCH.1+0x10>
   847bc:	d00000a0 	adrp	x0, 9a000 <CSWTCH.1+0x10>
   847c0:	9116e021 	add	x1, x1, #0x5b8
   847c4:	91172000 	add	x0, x0, #0x5c8
   847c8:	52800c62 	mov	w2, #0x63                  	// #99
   847cc:	97fff01d 	bl	80840 <uspi_assertion_failed>
   847d0:	71007e9f 	cmp	w20, #0x1f
   847d4:	54fffe29 	b.ls	84798 <DWHCIRegisterClearBit+0x28>  // b.plast
   847d8:	52800c82 	mov	w2, #0x64                  	// #100
   847dc:	d00000a1 	adrp	x1, 9a000 <CSWTCH.1+0x10>
   847e0:	d00000a0 	adrp	x0, 9a000 <CSWTCH.1+0x10>
   847e4:	9116e021 	add	x1, x1, #0x5b8
   847e8:	91176000 	add	x0, x0, #0x5d8
   847ec:	97fff015 	bl	80840 <uspi_assertion_failed>
   847f0:	b9401260 	ldr	w0, [x19, #16]
   847f4:	52800021 	mov	w1, #0x1                   	// #1
   847f8:	1ad42021 	lsl	w1, w1, w20
   847fc:	0a210001 	bic	w1, w0, w1
   84800:	b9001261 	str	w1, [x19, #16]
   84804:	a94153f3 	ldp	x19, x20, [sp, #16]
   84808:	a8c27bfd 	ldp	x29, x30, [sp], #32
   8480c:	d65f03c0 	ret
   84810:	d00000a1 	adrp	x1, 9a000 <CSWTCH.1+0x10>
   84814:	d00000a0 	adrp	x0, 9a000 <CSWTCH.1+0x10>
   84818:	9116e021 	add	x1, x1, #0x5b8
   8481c:	91004000 	add	x0, x0, #0x10
   84820:	52800c42 	mov	w2, #0x62                  	// #98
   84824:	97fff007 	bl	80840 <uspi_assertion_failed>
   84828:	17ffffd8 	b	84788 <DWHCIRegisterClearBit+0x18>
   8482c:	d503201f 	nop

0000000000084830 <DWHCIRegisterSetBit>:
   84830:	a9be7bfd 	stp	x29, x30, [sp, #-32]!
   84834:	910003fd 	mov	x29, sp
   84838:	a90153f3 	stp	x19, x20, [sp, #16]
   8483c:	aa0003f3 	mov	x19, x0
   84840:	2a0103f4 	mov	w20, w1
   84844:	b4000460 	cbz	x0, 848d0 <DWHCIRegisterSetBit+0xa0>
   84848:	b9400260 	ldr	w0, [x19]
   8484c:	34000160 	cbz	w0, 84878 <DWHCIRegisterSetBit+0x48>
   84850:	71007e9f 	cmp	w20, #0x1f
   84854:	54000228 	b.hi	84898 <DWHCIRegisterSetBit+0x68>  // b.pmore
   84858:	b9401261 	ldr	w1, [x19, #16]
   8485c:	52800020 	mov	w0, #0x1                   	// #1
   84860:	1ad42000 	lsl	w0, w0, w20
   84864:	2a000021 	orr	w1, w1, w0
   84868:	b9001261 	str	w1, [x19, #16]
   8486c:	a94153f3 	ldp	x19, x20, [sp, #16]
   84870:	a8c27bfd 	ldp	x29, x30, [sp], #32
   84874:	d65f03c0 	ret
   84878:	d00000a1 	adrp	x1, 9a000 <CSWTCH.1+0x10>
   8487c:	d00000a0 	adrp	x0, 9a000 <CSWTCH.1+0x10>
   84880:	9116e021 	add	x1, x1, #0x5b8
   84884:	91172000 	add	x0, x0, #0x5c8
   84888:	52800d62 	mov	w2, #0x6b                  	// #107
   8488c:	97ffefed 	bl	80840 <uspi_assertion_failed>
   84890:	71007e9f 	cmp	w20, #0x1f
   84894:	54fffe29 	b.ls	84858 <DWHCIRegisterSetBit+0x28>  // b.plast
   84898:	52800d82 	mov	w2, #0x6c                  	// #108
   8489c:	d00000a1 	adrp	x1, 9a000 <CSWTCH.1+0x10>
   848a0:	d00000a0 	adrp	x0, 9a000 <CSWTCH.1+0x10>
   848a4:	9116e021 	add	x1, x1, #0x5b8
   848a8:	91176000 	add	x0, x0, #0x5d8
   848ac:	97ffefe5 	bl	80840 <uspi_assertion_failed>
   848b0:	b9401261 	ldr	w1, [x19, #16]
   848b4:	52800020 	mov	w0, #0x1                   	// #1
   848b8:	1ad42000 	lsl	w0, w0, w20
   848bc:	2a000021 	orr	w1, w1, w0
   848c0:	b9001261 	str	w1, [x19, #16]
   848c4:	a94153f3 	ldp	x19, x20, [sp, #16]
   848c8:	a8c27bfd 	ldp	x29, x30, [sp], #32
   848cc:	d65f03c0 	ret
   848d0:	d00000a1 	adrp	x1, 9a000 <CSWTCH.1+0x10>
   848d4:	d00000a0 	adrp	x0, 9a000 <CSWTCH.1+0x10>
   848d8:	9116e021 	add	x1, x1, #0x5b8
   848dc:	91004000 	add	x0, x0, #0x10
   848e0:	52800d42 	mov	w2, #0x6a                  	// #106
   848e4:	97ffefd7 	bl	80840 <uspi_assertion_failed>
   848e8:	17ffffd8 	b	84848 <DWHCIRegisterSetBit+0x18>
   848ec:	d503201f 	nop

00000000000848f0 <DWHCIRegisterClearAll>:
   848f0:	a9be7bfd 	stp	x29, x30, [sp, #-32]!
   848f4:	910003fd 	mov	x29, sp
   848f8:	f9000bf3 	str	x19, [sp, #16]
   848fc:	aa0003f3 	mov	x19, x0
   84900:	b40000e0 	cbz	x0, 8491c <DWHCIRegisterClearAll+0x2c>
   84904:	52800020 	mov	w0, #0x1                   	// #1
   84908:	b9000260 	str	w0, [x19]
   8490c:	b900127f 	str	wzr, [x19, #16]
   84910:	f9400bf3 	ldr	x19, [sp, #16]
   84914:	a8c27bfd 	ldp	x29, x30, [sp], #32
   84918:	d65f03c0 	ret
   8491c:	52800e42 	mov	w2, #0x72                  	// #114
   84920:	d00000a1 	adrp	x1, 9a000 <CSWTCH.1+0x10>
   84924:	d00000a0 	adrp	x0, 9a000 <CSWTCH.1+0x10>
   84928:	9116e021 	add	x1, x1, #0x5b8
   8492c:	91004000 	add	x0, x0, #0x10
   84930:	97ffefc4 	bl	80840 <uspi_assertion_failed>
   84934:	52800020 	mov	w0, #0x1                   	// #1
   84938:	b9000260 	str	w0, [x19]
   8493c:	b900127f 	str	wzr, [x19, #16]
   84940:	f9400bf3 	ldr	x19, [sp, #16]
   84944:	a8c27bfd 	ldp	x29, x30, [sp], #32
   84948:	d65f03c0 	ret
   8494c:	d503201f 	nop

0000000000084950 <DWHCIRegisterSetAll>:
   84950:	a9be7bfd 	stp	x29, x30, [sp, #-32]!
   84954:	910003fd 	mov	x29, sp
   84958:	f9000bf3 	str	x19, [sp, #16]
   8495c:	aa0003f3 	mov	x19, x0
   84960:	b4000100 	cbz	x0, 84980 <DWHCIRegisterSetAll+0x30>
   84964:	12800000 	mov	w0, #0xffffffff            	// #-1
   84968:	52800021 	mov	w1, #0x1                   	// #1
   8496c:	b9000261 	str	w1, [x19]
   84970:	b9001260 	str	w0, [x19, #16]
   84974:	f9400bf3 	ldr	x19, [sp, #16]
   84978:	a8c27bfd 	ldp	x29, x30, [sp], #32
   8497c:	d65f03c0 	ret
   84980:	52800f22 	mov	w2, #0x79                  	// #121
   84984:	d00000a1 	adrp	x1, 9a000 <CSWTCH.1+0x10>
   84988:	d00000a0 	adrp	x0, 9a000 <CSWTCH.1+0x10>
   8498c:	9116e021 	add	x1, x1, #0x5b8
   84990:	91004000 	add	x0, x0, #0x10
   84994:	97ffefab 	bl	80840 <uspi_assertion_failed>
   84998:	12800000 	mov	w0, #0xffffffff            	// #-1
   8499c:	52800021 	mov	w1, #0x1                   	// #1
   849a0:	b9000261 	str	w1, [x19]
   849a4:	b9001260 	str	w0, [x19, #16]
   849a8:	f9400bf3 	ldr	x19, [sp, #16]
   849ac:	a8c27bfd 	ldp	x29, x30, [sp], #32
   849b0:	d65f03c0 	ret
   849b4:	d503201f 	nop
   849b8:	d503201f 	nop
   849bc:	d503201f 	nop

00000000000849c0 <DWHCIRegisterDump>:
   849c0:	a9be7bfd 	stp	x29, x30, [sp, #-32]!
   849c4:	910003fd 	mov	x29, sp
   849c8:	f9000bf3 	str	x19, [sp, #16]
   849cc:	aa0003f3 	mov	x19, x0
   849d0:	b40002c0 	cbz	x0, 84a28 <DWHCIRegisterDump+0x68>
   849d4:	b9400260 	ldr	w0, [x19]
   849d8:	f9400663 	ldr	x3, [x19, #8]
   849dc:	92402c63 	and	x3, x3, #0xfff
   849e0:	34000140 	cbz	w0, 84a08 <DWHCIRegisterDump+0x48>
   849e4:	b9401264 	ldr	w4, [x19, #16]
   849e8:	d00000a2 	adrp	x2, 9a000 <CSWTCH.1+0x10>
   849ec:	f9400bf3 	ldr	x19, [sp, #16]
   849f0:	d00000a0 	adrp	x0, 9a000 <CSWTCH.1+0x10>
   849f4:	a8c27bfd 	ldp	x29, x30, [sp], #32
   849f8:	91180042 	add	x2, x2, #0x600
   849fc:	91188000 	add	x0, x0, #0x620
   84a00:	52800081 	mov	w1, #0x4                   	// #4
   84a04:	17ffef67 	b	807a0 <LogWrite>
   84a08:	f9400bf3 	ldr	x19, [sp, #16]
   84a0c:	d00000a2 	adrp	x2, 9a000 <CSWTCH.1+0x10>
   84a10:	a8c27bfd 	ldp	x29, x30, [sp], #32
   84a14:	d00000a0 	adrp	x0, 9a000 <CSWTCH.1+0x10>
   84a18:	9118a042 	add	x2, x2, #0x628
   84a1c:	91188000 	add	x0, x0, #0x620
   84a20:	52800081 	mov	w1, #0x4                   	// #4
   84a24:	17ffef5f 	b	807a0 <LogWrite>
   84a28:	d00000a1 	adrp	x1, 9a000 <CSWTCH.1+0x10>
   84a2c:	d00000a0 	adrp	x0, 9a000 <CSWTCH.1+0x10>
   84a30:	9116e021 	add	x1, x1, #0x5b8
   84a34:	91004000 	add	x0, x0, #0x10
   84a38:	52801042 	mov	w2, #0x82                  	// #130
   84a3c:	97ffef81 	bl	80840 <uspi_assertion_failed>
   84a40:	17ffffe5 	b	849d4 <DWHCIRegisterDump+0x14>
	...

0000000000084a50 <_DWHCITransferStageData>:
   84a50:	a9be7bfd 	stp	x29, x30, [sp, #-32]!
   84a54:	910003fd 	mov	x29, sp
   84a58:	f9000bf3 	str	x19, [sp, #16]
   84a5c:	aa0003f3 	mov	x19, x0
   84a60:	b4000180 	cbz	x0, 84a90 <_DWHCITransferStageData+0x40>
   84a64:	b9406a60 	ldr	w0, [x19, #104]
   84a68:	34000080 	cbz	w0, 84a78 <_DWHCITransferStageData+0x28>
   84a6c:	f9403a61 	ldr	x1, [x19, #112]
   84a70:	9101c260 	add	x0, x19, #0x70
   84a74:	d63f0020 	blr	x1
   84a78:	f900067f 	str	xzr, [x19, #8]
   84a7c:	a9027e7f 	stp	xzr, xzr, [x19, #32]
   84a80:	f900327f 	str	xzr, [x19, #96]
   84a84:	f9400bf3 	ldr	x19, [sp, #16]
   84a88:	a8c27bfd 	ldp	x29, x30, [sp], #32
   84a8c:	d65f03c0 	ret
   84a90:	d00000a1 	adrp	x1, 9a000 <CSWTCH.1+0x10>
   84a94:	d00000a0 	adrp	x0, 9a000 <CSWTCH.1+0x10>
   84a98:	91198021 	add	x1, x1, #0x660
   84a9c:	91004000 	add	x0, x0, #0x10
   84aa0:	52801002 	mov	w2, #0x80                  	// #128
   84aa4:	97ffef67 	bl	80840 <uspi_assertion_failed>
   84aa8:	17ffffef 	b	84a64 <_DWHCITransferStageData+0x14>
   84aac:	d503201f 	nop

0000000000084ab0 <DWHCITransferStageDataTransactionComplete>:
   84ab0:	a9bc7bfd 	stp	x29, x30, [sp, #-64]!
   84ab4:	910003fd 	mov	x29, sp
   84ab8:	a90153f3 	stp	x19, x20, [sp, #16]
   84abc:	aa0003f3 	mov	x19, x0
   84ac0:	a9025bf5 	stp	x21, x22, [sp, #32]
   84ac4:	2a0103f5 	mov	w21, w1
   84ac8:	2a0203f6 	mov	w22, w2
   84acc:	b40008c0 	cbz	x0, 84be4 <DWHCITransferStageDataTransactionComplete+0x134>
   84ad0:	b9005675 	str	w21, [x19, #84]
   84ad4:	5280fb80 	mov	w0, #0x7dc                 	// #2012
   84ad8:	6a0002bf 	tst	w21, w0
   84adc:	54000401 	b.ne	84b5c <DWHCITransferStageDataTransactionComplete+0xac>  // b.any
   84ae0:	b9401a64 	ldr	w4, [x19, #24]
   84ae4:	29485261 	ldp	w1, w20, [x19, #64]
   84ae8:	b9404a60 	ldr	w0, [x19, #72]
   84aec:	4b030023 	sub	w3, w1, w3
   84af0:	4b160295 	sub	w21, w20, w22
   84af4:	f9403262 	ldr	x2, [x19, #96]
   84af8:	340003a4 	cbz	w4, 84b6c <DWHCITransferStageDataTransactionComplete+0xbc>
   84afc:	b9401e64 	ldr	w4, [x19, #28]
   84b00:	7100009f 	cmp	w4, #0x0
   84b04:	7a401860 	ccmp	w3, #0x0, #0x0, ne  // ne = any
   84b08:	54000800 	b.eq	84c08 <DWHCITransferStageDataTransactionComplete+0x158>  // b.none
   84b0c:	0b000060 	add	w0, w3, w0
   84b10:	8b234043 	add	x3, x2, w3, uxtw
   84b14:	b9004a60 	str	w0, [x19, #72]
   84b18:	f9003263 	str	x3, [x19, #96]
   84b1c:	35000304 	cbnz	w4, 84b7c <DWHCITransferStageDataTransactionComplete+0xcc>
   84b20:	b9403e60 	ldr	w0, [x19, #60]
   84b24:	6b15001f 	cmp	w0, w21
   84b28:	54000383 	b.cc	84b98 <DWHCITransferStageDataTransactionComplete+0xe8>  // b.lo, b.ul, b.last
   84b2c:	4b1402d4 	sub	w20, w22, w20
   84b30:	b9403a62 	ldr	w2, [x19, #56]
   84b34:	b9404a61 	ldr	w1, [x19, #72]
   84b38:	0b000294 	add	w20, w20, w0
   84b3c:	b9404263 	ldr	w3, [x19, #64]
   84b40:	b9003e74 	str	w20, [x19, #60]
   84b44:	4b010040 	sub	w0, w2, w1
   84b48:	6b03001f 	cmp	w0, w3
   84b4c:	54000082 	b.cs	84b5c <DWHCITransferStageDataTransactionComplete+0xac>  // b.hs, b.nlast
   84b50:	6b01005f 	cmp	w2, w1
   84b54:	54000323 	b.cc	84bb8 <DWHCITransferStageDataTransactionComplete+0x108>  // b.lo, b.ul, b.last
   84b58:	b9004260 	str	w0, [x19, #64]
   84b5c:	a94153f3 	ldp	x19, x20, [sp, #16]
   84b60:	a9425bf5 	ldp	x21, x22, [sp, #32]
   84b64:	a8c47bfd 	ldp	x29, x30, [sp], #64
   84b68:	d65f03c0 	ret
   84b6c:	0b000060 	add	w0, w3, w0
   84b70:	8b234043 	add	x3, x2, w3, uxtw
   84b74:	b9004a60 	str	w0, [x19, #72]
   84b78:	f9003263 	str	x3, [x19, #96]
   84b7c:	b9401662 	ldr	w2, [x19, #20]
   84b80:	2a1503e1 	mov	w1, w21
   84b84:	f9401660 	ldr	x0, [x19, #40]
   84b88:	94000b46 	bl	878a0 <USBEndpointSkipPID>
   84b8c:	b9403e60 	ldr	w0, [x19, #60]
   84b90:	6b15001f 	cmp	w0, w21
   84b94:	54fffcc2 	b.cs	84b2c <DWHCITransferStageDataTransactionComplete+0x7c>  // b.hs, b.nlast
   84b98:	d00000a1 	adrp	x1, 9a000 <CSWTCH.1+0x10>
   84b9c:	d00000a0 	adrp	x0, 9a000 <CSWTCH.1+0x10>
   84ba0:	91198021 	add	x1, x1, #0x660
   84ba4:	9119e000 	add	x0, x0, #0x678
   84ba8:	52801722 	mov	w2, #0xb9                  	// #185
   84bac:	97ffef25 	bl	80840 <uspi_assertion_failed>
   84bb0:	b9403e60 	ldr	w0, [x19, #60]
   84bb4:	17ffffde 	b	84b2c <DWHCITransferStageDataTransactionComplete+0x7c>
   84bb8:	d00000a1 	adrp	x1, 9a000 <CSWTCH.1+0x10>
   84bbc:	d00000a0 	adrp	x0, 9a000 <CSWTCH.1+0x10>
   84bc0:	91198021 	add	x1, x1, #0x660
   84bc4:	911a8000 	add	x0, x0, #0x6a0
   84bc8:	528017e2 	mov	w2, #0xbf                  	// #191
   84bcc:	97ffef1d 	bl	80840 <uspi_assertion_failed>
   84bd0:	b9403a60 	ldr	w0, [x19, #56]
   84bd4:	b9404a61 	ldr	w1, [x19, #72]
   84bd8:	4b010000 	sub	w0, w0, w1
   84bdc:	b9004260 	str	w0, [x19, #64]
   84be0:	17ffffdf 	b	84b5c <DWHCITransferStageDataTransactionComplete+0xac>
   84be4:	d00000a1 	adrp	x1, 9a000 <CSWTCH.1+0x10>
   84be8:	d00000a0 	adrp	x0, 9a000 <CSWTCH.1+0x10>
   84bec:	91198021 	add	x1, x1, #0x660
   84bf0:	91004000 	add	x0, x0, #0x10
   84bf4:	52801202 	mov	w2, #0x90                  	// #144
   84bf8:	b9003fe3 	str	w3, [sp, #60]
   84bfc:	97ffef11 	bl	80840 <uspi_assertion_failed>
   84c00:	b9403fe3 	ldr	w3, [sp, #60]
   84c04:	17ffffb3 	b	84ad0 <DWHCITransferStageDataTransactionComplete+0x20>
   84c08:	d2800003 	mov	x3, #0x0                   	// #0
   84c0c:	34000081 	cbz	w1, 84c1c <DWHCITransferStageDataTransactionComplete+0x16c>
   84c10:	b9403661 	ldr	w1, [x19, #52]
   84c14:	1b017ea3 	mul	w3, w21, w1
   84c18:	aa0303e1 	mov	x1, x3
   84c1c:	0b000020 	add	w0, w1, w0
   84c20:	8b030043 	add	x3, x2, x3
   84c24:	b9004a60 	str	w0, [x19, #72]
   84c28:	f9003263 	str	x3, [x19, #96]
   84c2c:	17ffffd4 	b	84b7c <DWHCITransferStageDataTransactionComplete+0xcc>

0000000000084c30 <DWHCITransferStageDataSetSplitComplete>:
   84c30:	a9be7bfd 	stp	x29, x30, [sp, #-32]!
   84c34:	910003fd 	mov	x29, sp
   84c38:	a90153f3 	stp	x19, x20, [sp, #16]
   84c3c:	aa0003f3 	mov	x19, x0
   84c40:	2a0103f4 	mov	w20, w1
   84c44:	b4000220 	cbz	x0, 84c88 <DWHCITransferStageDataSetSplitComplete+0x58>
   84c48:	b9401a60 	ldr	w0, [x19, #24]
   84c4c:	340000a0 	cbz	w0, 84c60 <DWHCITransferStageDataSetSplitComplete+0x30>
   84c50:	b9001e74 	str	w20, [x19, #28]
   84c54:	a94153f3 	ldp	x19, x20, [sp, #16]
   84c58:	a8c27bfd 	ldp	x29, x30, [sp], #32
   84c5c:	d65f03c0 	ret
   84c60:	528018e2 	mov	w2, #0xc7                  	// #199
   84c64:	d00000a1 	adrp	x1, 9a000 <CSWTCH.1+0x10>
   84c68:	d00000a0 	adrp	x0, 9a000 <CSWTCH.1+0x10>
   84c6c:	91198021 	add	x1, x1, #0x660
   84c70:	911b8000 	add	x0, x0, #0x6e0
   84c74:	97ffeef3 	bl	80840 <uspi_assertion_failed>
   84c78:	b9001e74 	str	w20, [x19, #28]
   84c7c:	a94153f3 	ldp	x19, x20, [sp, #16]
   84c80:	a8c27bfd 	ldp	x29, x30, [sp], #32
   84c84:	d65f03c0 	ret
   84c88:	d00000a1 	adrp	x1, 9a000 <CSWTCH.1+0x10>
   84c8c:	d00000a0 	adrp	x0, 9a000 <CSWTCH.1+0x10>
   84c90:	91198021 	add	x1, x1, #0x660
   84c94:	91004000 	add	x0, x0, #0x10
   84c98:	528018c2 	mov	w2, #0xc6                  	// #198
   84c9c:	97ffeee9 	bl	80840 <uspi_assertion_failed>
   84ca0:	17ffffea 	b	84c48 <DWHCITransferStageDataSetSplitComplete+0x18>
   84ca4:	d503201f 	nop
   84ca8:	d503201f 	nop
   84cac:	d503201f 	nop

0000000000084cb0 <DWHCITransferStageDataSetState>:
   84cb0:	a9be7bfd 	stp	x29, x30, [sp, #-32]!
   84cb4:	910003fd 	mov	x29, sp
   84cb8:	a90153f3 	stp	x19, x20, [sp, #16]
   84cbc:	aa0003f3 	mov	x19, x0
   84cc0:	2a0103f4 	mov	w20, w1
   84cc4:	b40000a0 	cbz	x0, 84cd8 <DWHCITransferStageDataSetState+0x28>
   84cc8:	b9004e74 	str	w20, [x19, #76]
   84ccc:	a94153f3 	ldp	x19, x20, [sp, #16]
   84cd0:	a8c27bfd 	ldp	x29, x30, [sp], #32
   84cd4:	d65f03c0 	ret
   84cd8:	528019c2 	mov	w2, #0xce                  	// #206
   84cdc:	d00000a1 	adrp	x1, 9a000 <CSWTCH.1+0x10>
   84ce0:	d00000a0 	adrp	x0, 9a000 <CSWTCH.1+0x10>
   84ce4:	91198021 	add	x1, x1, #0x660
   84ce8:	91004000 	add	x0, x0, #0x10
   84cec:	97ffeed5 	bl	80840 <uspi_assertion_failed>
   84cf0:	b9004e74 	str	w20, [x19, #76]
   84cf4:	a94153f3 	ldp	x19, x20, [sp, #16]
   84cf8:	a8c27bfd 	ldp	x29, x30, [sp], #32
   84cfc:	d65f03c0 	ret

0000000000084d00 <DWHCITransferStageDataGetState>:
   84d00:	a9be7bfd 	stp	x29, x30, [sp, #-32]!
   84d04:	910003fd 	mov	x29, sp
   84d08:	f9000bf3 	str	x19, [sp, #16]
   84d0c:	aa0003f3 	mov	x19, x0
   84d10:	b40000a0 	cbz	x0, 84d24 <DWHCITransferStageDataGetState+0x24>
   84d14:	b9404e60 	ldr	w0, [x19, #76]
   84d18:	f9400bf3 	ldr	x19, [sp, #16]
   84d1c:	a8c27bfd 	ldp	x29, x30, [sp], #32
   84d20:	d65f03c0 	ret
   84d24:	52801a82 	mov	w2, #0xd4                  	// #212
   84d28:	d00000a1 	adrp	x1, 9a000 <CSWTCH.1+0x10>
   84d2c:	d00000a0 	adrp	x0, 9a000 <CSWTCH.1+0x10>
   84d30:	91198021 	add	x1, x1, #0x660
   84d34:	91004000 	add	x0, x0, #0x10
   84d38:	97ffeec2 	bl	80840 <uspi_assertion_failed>
   84d3c:	b9404e60 	ldr	w0, [x19, #76]
   84d40:	f9400bf3 	ldr	x19, [sp, #16]
   84d44:	a8c27bfd 	ldp	x29, x30, [sp], #32
   84d48:	d65f03c0 	ret
   84d4c:	d503201f 	nop

0000000000084d50 <DWHCITransferStageDataSetSubState>:
   84d50:	a9be7bfd 	stp	x29, x30, [sp, #-32]!
   84d54:	910003fd 	mov	x29, sp
   84d58:	a90153f3 	stp	x19, x20, [sp, #16]
   84d5c:	aa0003f3 	mov	x19, x0
   84d60:	2a0103f4 	mov	w20, w1
   84d64:	b40000a0 	cbz	x0, 84d78 <DWHCITransferStageDataSetSubState+0x28>
   84d68:	b9005274 	str	w20, [x19, #80]
   84d6c:	a94153f3 	ldp	x19, x20, [sp, #16]
   84d70:	a8c27bfd 	ldp	x29, x30, [sp], #32
   84d74:	d65f03c0 	ret
   84d78:	52801b42 	mov	w2, #0xda                  	// #218
   84d7c:	d00000a1 	adrp	x1, 9a000 <CSWTCH.1+0x10>
   84d80:	d00000a0 	adrp	x0, 9a000 <CSWTCH.1+0x10>
   84d84:	91198021 	add	x1, x1, #0x660
   84d88:	91004000 	add	x0, x0, #0x10
   84d8c:	97ffeead 	bl	80840 <uspi_assertion_failed>
   84d90:	b9005274 	str	w20, [x19, #80]
   84d94:	a94153f3 	ldp	x19, x20, [sp, #16]
   84d98:	a8c27bfd 	ldp	x29, x30, [sp], #32
   84d9c:	d65f03c0 	ret

0000000000084da0 <DWHCITransferStageDataGetSubState>:
   84da0:	a9be7bfd 	stp	x29, x30, [sp, #-32]!
   84da4:	910003fd 	mov	x29, sp
   84da8:	f9000bf3 	str	x19, [sp, #16]
   84dac:	aa0003f3 	mov	x19, x0
   84db0:	b40000a0 	cbz	x0, 84dc4 <DWHCITransferStageDataGetSubState+0x24>
   84db4:	b9405260 	ldr	w0, [x19, #80]
   84db8:	f9400bf3 	ldr	x19, [sp, #16]
   84dbc:	a8c27bfd 	ldp	x29, x30, [sp], #32
   84dc0:	d65f03c0 	ret
   84dc4:	52801c02 	mov	w2, #0xe0                  	// #224
   84dc8:	d00000a1 	adrp	x1, 9a000 <CSWTCH.1+0x10>
   84dcc:	d00000a0 	adrp	x0, 9a000 <CSWTCH.1+0x10>
   84dd0:	91198021 	add	x1, x1, #0x660
   84dd4:	91004000 	add	x0, x0, #0x10
   84dd8:	97ffee9a 	bl	80840 <uspi_assertion_failed>
   84ddc:	b9405260 	ldr	w0, [x19, #80]
   84de0:	f9400bf3 	ldr	x19, [sp, #16]
   84de4:	a8c27bfd 	ldp	x29, x30, [sp], #32
   84de8:	d65f03c0 	ret
   84dec:	d503201f 	nop

0000000000084df0 <DWHCITransferStageDataBeginSplitCycle>:
   84df0:	52800020 	mov	w0, #0x1                   	// #1
   84df4:	d65f03c0 	ret
   84df8:	d503201f 	nop
   84dfc:	d503201f 	nop

0000000000084e00 <DWHCITransferStageDataGetChannelNumber>:
   84e00:	a9be7bfd 	stp	x29, x30, [sp, #-32]!
   84e04:	910003fd 	mov	x29, sp
   84e08:	f9000bf3 	str	x19, [sp, #16]
   84e0c:	aa0003f3 	mov	x19, x0
   84e10:	b40000a0 	cbz	x0, 84e24 <DWHCITransferStageDataGetChannelNumber+0x24>
   84e14:	b9400260 	ldr	w0, [x19]
   84e18:	f9400bf3 	ldr	x19, [sp, #16]
   84e1c:	a8c27bfd 	ldp	x29, x30, [sp], #32
   84e20:	d65f03c0 	ret
   84e24:	52801d62 	mov	w2, #0xeb                  	// #235
   84e28:	d00000a1 	adrp	x1, 9a000 <CSWTCH.1+0x10>
   84e2c:	d00000a0 	adrp	x0, 9a000 <CSWTCH.1+0x10>
   84e30:	91198021 	add	x1, x1, #0x660
   84e34:	91004000 	add	x0, x0, #0x10
   84e38:	97ffee82 	bl	80840 <uspi_assertion_failed>
   84e3c:	b9400260 	ldr	w0, [x19]
   84e40:	f9400bf3 	ldr	x19, [sp, #16]
   84e44:	a8c27bfd 	ldp	x29, x30, [sp], #32
   84e48:	d65f03c0 	ret
   84e4c:	d503201f 	nop

0000000000084e50 <DWHCITransferStageDataIsPeriodic>:
   84e50:	a9be7bfd 	stp	x29, x30, [sp, #-32]!
   84e54:	910003fd 	mov	x29, sp
   84e58:	f9000bf3 	str	x19, [sp, #16]
   84e5c:	aa0003f3 	mov	x19, x0
   84e60:	b4000140 	cbz	x0, 84e88 <DWHCITransferStageDataIsPeriodic+0x38>
   84e64:	f9401660 	ldr	x0, [x19, #40]
   84e68:	b4000200 	cbz	x0, 84ea8 <DWHCITransferStageDataIsPeriodic+0x58>
   84e6c:	94000a01 	bl	87670 <USBEndpointGetType>
   84e70:	51000800 	sub	w0, w0, #0x2
   84e74:	7100041f 	cmp	w0, #0x1
   84e78:	1a9f87e0 	cset	w0, ls  // ls = plast
   84e7c:	f9400bf3 	ldr	x19, [sp, #16]
   84e80:	a8c27bfd 	ldp	x29, x30, [sp], #32
   84e84:	d65f03c0 	ret
   84e88:	d00000a1 	adrp	x1, 9a000 <CSWTCH.1+0x10>
   84e8c:	d00000a0 	adrp	x0, 9a000 <CSWTCH.1+0x10>
   84e90:	91198021 	add	x1, x1, #0x660
   84e94:	91004000 	add	x0, x0, #0x10
   84e98:	52801e22 	mov	w2, #0xf1                  	// #241
   84e9c:	97ffee69 	bl	80840 <uspi_assertion_failed>
   84ea0:	f9401660 	ldr	x0, [x19, #40]
   84ea4:	b5fffe40 	cbnz	x0, 84e6c <DWHCITransferStageDataIsPeriodic+0x1c>
   84ea8:	52801e42 	mov	w2, #0xf2                  	// #242
   84eac:	d00000a1 	adrp	x1, 9a000 <CSWTCH.1+0x10>
   84eb0:	d00000a0 	adrp	x0, 9a000 <CSWTCH.1+0x10>
   84eb4:	91198021 	add	x1, x1, #0x660
   84eb8:	911c0000 	add	x0, x0, #0x700
   84ebc:	97ffee61 	bl	80840 <uspi_assertion_failed>
   84ec0:	f9401660 	ldr	x0, [x19, #40]
   84ec4:	940009eb 	bl	87670 <USBEndpointGetType>
   84ec8:	51000800 	sub	w0, w0, #0x2
   84ecc:	7100041f 	cmp	w0, #0x1
   84ed0:	1a9f87e0 	cset	w0, ls  // ls = plast
   84ed4:	f9400bf3 	ldr	x19, [sp, #16]
   84ed8:	a8c27bfd 	ldp	x29, x30, [sp], #32
   84edc:	d65f03c0 	ret

0000000000084ee0 <DWHCITransferStageData>:
   84ee0:	a9bc7bfd 	stp	x29, x30, [sp, #-64]!
   84ee4:	910003fd 	mov	x29, sp
   84ee8:	a90153f3 	stp	x19, x20, [sp, #16]
   84eec:	aa0003f3 	mov	x19, x0
   84ef0:	aa0203f4 	mov	x20, x2
   84ef4:	a9025bf5 	stp	x21, x22, [sp, #32]
   84ef8:	2a0103f6 	mov	w22, w1
   84efc:	2a0403f5 	mov	w21, w4
   84f00:	b4000f80 	cbz	x0, 850f0 <DWHCITransferStageData+0x210>
   84f04:	b9000276 	str	w22, [x19]
   84f08:	f9000674 	str	x20, [x19, #8]
   84f0c:	29025663 	stp	w3, w21, [x19, #16]
   84f10:	b9001e7f 	str	wzr, [x19, #28]
   84f14:	a904fe7f 	stp	xzr, xzr, [x19, #72]
   84f18:	b9006a7f 	str	wzr, [x19, #104]
   84f1c:	b40010b4 	cbz	x20, 85130 <DWHCITransferStageData+0x250>
   84f20:	aa1403e0 	mov	x0, x20
   84f24:	94000b0b 	bl	87b50 <USBRequestGetEndpoint>
   84f28:	f9001660 	str	x0, [x19, #40]
   84f2c:	b4001160 	cbz	x0, 85158 <DWHCITransferStageData+0x278>
   84f30:	940009a0 	bl	875b0 <USBEndpointGetDevice>
   84f34:	f9001260 	str	x0, [x19, #32]
   84f38:	b4001240 	cbz	x0, 85180 <DWHCITransferStageData+0x2a0>
   84f3c:	94000451 	bl	86080 <USBDeviceGetSpeed>
   84f40:	b9003260 	str	w0, [x19, #48]
   84f44:	f9401660 	ldr	x0, [x19, #40]
   84f48:	94000a06 	bl	87760 <USBEndpointGetMaxPacketSize>
   84f4c:	b9003660 	str	w0, [x19, #52]
   84f50:	f9401260 	ldr	x0, [x19, #32]
   84f54:	94000473 	bl	86120 <USBDeviceGetHubAddress>
   84f58:	72001c1f 	tst	w0, #0xff
   84f5c:	52800001 	mov	w1, #0x0                   	// #0
   84f60:	54000481 	b.ne	84ff0 <DWHCITransferStageData+0x110>  // b.any
   84f64:	b9001a61 	str	w1, [x19, #24]
   84f68:	340004f5 	cbz	w21, 85004 <DWHCITransferStageData+0x124>
   84f6c:	91016261 	add	x1, x19, #0x58
   84f70:	d2c00020 	mov	x0, #0x100000000           	// #4294967296
   84f74:	a9038260 	stp	x0, x0, [x19, #56]
   84f78:	f9003261 	str	x1, [x19, #96]
   84f7c:	f240043f 	tst	x1, #0x3
   84f80:	54000841 	b.ne	85088 <DWHCITransferStageData+0x1a8>  // b.any
   84f84:	b9401a60 	ldr	w0, [x19, #24]
   84f88:	340001a0 	cbz	w0, 84fbc <DWHCITransferStageData+0xdc>
   84f8c:	aa1303e0 	mov	x0, x19
   84f90:	97ffffb0 	bl	84e50 <DWHCITransferStageDataIsPeriodic>
   84f94:	9101c261 	add	x1, x19, #0x70
   84f98:	34000860 	cbz	w0, 850a4 <DWHCITransferStageData+0x1c4>
   84f9c:	aa0103e0 	mov	x0, x1
   84fa0:	940023e8 	bl	8df40 <DWHCIFrameSchedulerPeriodic>
   84fa4:	52800020 	mov	w0, #0x1                   	// #1
   84fa8:	b9006a60 	str	w0, [x19, #104]
   84fac:	a94153f3 	ldp	x19, x20, [sp, #16]
   84fb0:	a9425bf5 	ldp	x21, x22, [sp, #32]
   84fb4:	a8c47bfd 	ldp	x29, x30, [sp], #64
   84fb8:	d65f03c0 	ret
   84fbc:	f9401260 	ldr	x0, [x19, #32]
   84fc0:	94000458 	bl	86120 <USBDeviceGetHubAddress>
   84fc4:	72001c1f 	tst	w0, #0xff
   84fc8:	54ffff21 	b.ne	84fac <DWHCITransferStageData+0xcc>  // b.any
   84fcc:	b9403260 	ldr	w0, [x19, #48]
   84fd0:	7100081f 	cmp	w0, #0x2
   84fd4:	54fffec0 	b.eq	84fac <DWHCITransferStageData+0xcc>  // b.none
   84fd8:	aa1303e0 	mov	x0, x19
   84fdc:	97ffff9d 	bl	84e50 <DWHCITransferStageDataIsPeriodic>
   84fe0:	2a0003e1 	mov	w1, w0
   84fe4:	9101c260 	add	x0, x19, #0x70
   84fe8:	940028e2 	bl	8f370 <DWHCIFrameSchedulerNoSplit>
   84fec:	17ffffee 	b	84fa4 <DWHCITransferStageData+0xc4>
   84ff0:	b9403260 	ldr	w0, [x19, #48]
   84ff4:	7100081f 	cmp	w0, #0x2
   84ff8:	1a9f07e1 	cset	w1, ne  // ne = any
   84ffc:	b9001a61 	str	w1, [x19, #24]
   85000:	35fffb75 	cbnz	w21, 84f6c <DWHCITransferStageData+0x8c>
   85004:	f9401660 	ldr	x0, [x19, #40]
   85008:	52800001 	mov	w1, #0x0                   	// #0
   8500c:	94000a05 	bl	87820 <USBEndpointGetNextPID>
   85010:	34000500 	cbz	w0, 850b0 <DWHCITransferStageData+0x1d0>
   85014:	aa1403e0 	mov	x0, x20
   85018:	94000b6a 	bl	87dc0 <USBRequestGetBuffer>
   8501c:	f9003260 	str	x0, [x19, #96]
   85020:	aa1403e0 	mov	x0, x20
   85024:	94000b83 	bl	87e30 <USBRequestGetBufLen>
   85028:	b9003a60 	str	w0, [x19, #56]
   8502c:	b9403663 	ldr	w3, [x19, #52]
   85030:	b9401a64 	ldr	w4, [x19, #24]
   85034:	51000462 	sub	w2, w3, #0x1
   85038:	0b000042 	add	w2, w2, w0
   8503c:	f9403261 	ldr	x1, [x19, #96]
   85040:	1ac30842 	udiv	w2, w2, w3
   85044:	b9003e62 	str	w2, [x19, #60]
   85048:	34000504 	cbz	w4, 850e8 <DWHCITransferStageData+0x208>
   8504c:	6b00007f 	cmp	w3, w0
   85050:	52800022 	mov	w2, #0x1                   	// #1
   85054:	1a809063 	csel	w3, w3, w0, ls  // ls = plast
   85058:	29080a63 	stp	w3, w2, [x19, #64]
   8505c:	b5fff901 	cbnz	x1, 84f7c <DWHCITransferStageData+0x9c>
   85060:	b00000a1 	adrp	x1, 9a000 <CSWTCH.1+0x10>
   85064:	b00000a0 	adrp	x0, 9a000 <CSWTCH.1+0x10>
   85068:	91198021 	add	x1, x1, #0x660
   8506c:	911d2000 	add	x0, x0, #0x748
   85070:	52800c22 	mov	w2, #0x61                  	// #97
   85074:	97ffedf3 	bl	80840 <uspi_assertion_failed>
   85078:	f9403261 	ldr	x1, [x19, #96]
   8507c:	f240043f 	tst	x1, #0x3
   85080:	54fff820 	b.eq	84f84 <DWHCITransferStageData+0xa4>  // b.none
   85084:	d503201f 	nop
   85088:	b00000a1 	adrp	x1, 9a000 <CSWTCH.1+0x10>
   8508c:	b00000a0 	adrp	x0, 9a000 <CSWTCH.1+0x10>
   85090:	91198021 	add	x1, x1, #0x660
   85094:	911da000 	add	x0, x0, #0x768
   85098:	52800c42 	mov	w2, #0x62                  	// #98
   8509c:	97ffede9 	bl	80840 <uspi_assertion_failed>
   850a0:	17ffffb9 	b	84f84 <DWHCITransferStageData+0xa4>
   850a4:	aa0103e0 	mov	x0, x1
   850a8:	9400228e 	bl	8dae0 <DWHCIFrameSchedulerNonPeriodic>
   850ac:	17ffffbe 	b	84fa4 <DWHCITransferStageData+0xc4>
   850b0:	aa1403e0 	mov	x0, x20
   850b4:	94000b1b 	bl	87d20 <USBRequestGetSetupData>
   850b8:	b9403663 	ldr	w3, [x19, #52]
   850bc:	52800102 	mov	w2, #0x8                   	// #8
   850c0:	aa0003e1 	mov	x1, x0
   850c4:	2a0203e0 	mov	w0, w2
   850c8:	b9003a62 	str	w2, [x19, #56]
   850cc:	51000462 	sub	w2, w3, #0x1
   850d0:	0b000042 	add	w2, w2, w0
   850d4:	b9401a64 	ldr	w4, [x19, #24]
   850d8:	f9003261 	str	x1, [x19, #96]
   850dc:	1ac30842 	udiv	w2, w2, w3
   850e0:	b9003e62 	str	w2, [x19, #60]
   850e4:	35fffb44 	cbnz	w4, 8504c <DWHCITransferStageData+0x16c>
   850e8:	29080a60 	stp	w0, w2, [x19, #64]
   850ec:	17ffffdc 	b	8505c <DWHCITransferStageData+0x17c>
   850f0:	b00000a1 	adrp	x1, 9a000 <CSWTCH.1+0x10>
   850f4:	b00000a0 	adrp	x0, 9a000 <CSWTCH.1+0x10>
   850f8:	91198021 	add	x1, x1, #0x660
   850fc:	91004000 	add	x0, x0, #0x10
   85100:	52800362 	mov	w2, #0x1b                  	// #27
   85104:	b9003fe3 	str	w3, [sp, #60]
   85108:	97ffedce 	bl	80840 <uspi_assertion_failed>
   8510c:	b9000276 	str	w22, [x19]
   85110:	b9403fe3 	ldr	w3, [sp, #60]
   85114:	f9000674 	str	x20, [x19, #8]
   85118:	29025663 	stp	w3, w21, [x19, #16]
   8511c:	b9001e7f 	str	wzr, [x19, #28]
   85120:	a904fe7f 	stp	xzr, xzr, [x19, #72]
   85124:	b9006a7f 	str	wzr, [x19, #104]
   85128:	b5ffefd4 	cbnz	x20, 84f20 <DWHCITransferStageData+0x40>
   8512c:	d503201f 	nop
   85130:	b00000a1 	adrp	x1, 9a000 <CSWTCH.1+0x10>
   85134:	91198021 	add	x1, x1, #0x660
   85138:	52800502 	mov	w2, #0x28                  	// #40
   8513c:	b00000a0 	adrp	x0, 9a000 <CSWTCH.1+0x10>
   85140:	911c6000 	add	x0, x0, #0x718
   85144:	97ffedbf 	bl	80840 <uspi_assertion_failed>
   85148:	aa1403e0 	mov	x0, x20
   8514c:	94000a81 	bl	87b50 <USBRequestGetEndpoint>
   85150:	f9001660 	str	x0, [x19, #40]
   85154:	b5ffeee0 	cbnz	x0, 84f30 <DWHCITransferStageData+0x50>
   85158:	52800562 	mov	w2, #0x2b                  	// #43
   8515c:	b00000a1 	adrp	x1, 9a000 <CSWTCH.1+0x10>
   85160:	b00000a0 	adrp	x0, 9a000 <CSWTCH.1+0x10>
   85164:	91198021 	add	x1, x1, #0x660
   85168:	911c0000 	add	x0, x0, #0x700
   8516c:	97ffedb5 	bl	80840 <uspi_assertion_failed>
   85170:	f9401660 	ldr	x0, [x19, #40]
   85174:	9400090f 	bl	875b0 <USBEndpointGetDevice>
   85178:	f9001260 	str	x0, [x19, #32]
   8517c:	b5ffee00 	cbnz	x0, 84f3c <DWHCITransferStageData+0x5c>
   85180:	b00000a1 	adrp	x1, 9a000 <CSWTCH.1+0x10>
   85184:	b00000a0 	adrp	x0, 9a000 <CSWTCH.1+0x10>
   85188:	91198021 	add	x1, x1, #0x660
   8518c:	911cc000 	add	x0, x0, #0x730
   85190:	528005a2 	mov	w2, #0x2d                  	// #45
   85194:	97ffedab 	bl	80840 <uspi_assertion_failed>
   85198:	f9401260 	ldr	x0, [x19, #32]
   8519c:	17ffff68 	b	84f3c <DWHCITransferStageData+0x5c>

00000000000851a0 <DWHCITransferStageDataGetDeviceAddress>:
   851a0:	a9be7bfd 	stp	x29, x30, [sp, #-32]!
   851a4:	910003fd 	mov	x29, sp
   851a8:	f9000bf3 	str	x19, [sp, #16]
   851ac:	aa0003f3 	mov	x19, x0
   851b0:	b40000c0 	cbz	x0, 851c8 <DWHCITransferStageDataGetDeviceAddress+0x28>
   851b4:	f9401260 	ldr	x0, [x19, #32]
   851b8:	b4000180 	cbz	x0, 851e8 <DWHCITransferStageDataGetDeviceAddress+0x48>
   851bc:	f9400bf3 	ldr	x19, [sp, #16]
   851c0:	a8c27bfd 	ldp	x29, x30, [sp], #32
   851c4:	1400039b 	b	86030 <USBDeviceGetAddress>
   851c8:	b00000a1 	adrp	x1, 9a000 <CSWTCH.1+0x10>
   851cc:	b00000a0 	adrp	x0, 9a000 <CSWTCH.1+0x10>
   851d0:	91198021 	add	x1, x1, #0x660
   851d4:	91004000 	add	x0, x0, #0x10
   851d8:	52801f62 	mov	w2, #0xfb                  	// #251
   851dc:	97ffed99 	bl	80840 <uspi_assertion_failed>
   851e0:	f9401260 	ldr	x0, [x19, #32]
   851e4:	b5fffec0 	cbnz	x0, 851bc <DWHCITransferStageDataGetDeviceAddress+0x1c>
   851e8:	52801f82 	mov	w2, #0xfc                  	// #252
   851ec:	b00000a1 	adrp	x1, 9a000 <CSWTCH.1+0x10>
   851f0:	b00000a0 	adrp	x0, 9a000 <CSWTCH.1+0x10>
   851f4:	91198021 	add	x1, x1, #0x660
   851f8:	911cc000 	add	x0, x0, #0x730
   851fc:	97ffed91 	bl	80840 <uspi_assertion_failed>
   85200:	f9401260 	ldr	x0, [x19, #32]
   85204:	f9400bf3 	ldr	x19, [sp, #16]
   85208:	a8c27bfd 	ldp	x29, x30, [sp], #32
   8520c:	14000389 	b	86030 <USBDeviceGetAddress>

0000000000085210 <DWHCITransferStageDataGetEndpointType>:
   85210:	a9be7bfd 	stp	x29, x30, [sp, #-32]!
   85214:	910003fd 	mov	x29, sp
   85218:	f9000bf3 	str	x19, [sp, #16]
   8521c:	aa0003f3 	mov	x19, x0
   85220:	b40003e0 	cbz	x0, 8529c <DWHCITransferStageDataGetEndpointType+0x8c>
   85224:	f9401660 	ldr	x0, [x19, #40]
   85228:	b40002a0 	cbz	x0, 8527c <DWHCITransferStageDataGetEndpointType+0x6c>
   8522c:	94000911 	bl	87670 <USBEndpointGetType>
   85230:	7100081f 	cmp	w0, #0x2
   85234:	54000108 	b.hi	85254 <DWHCITransferStageDataGetEndpointType+0x44>  // b.pmore
   85238:	b00000a1 	adrp	x1, 9a000 <CSWTCH.1+0x10>
   8523c:	91192021 	add	x1, x1, #0x648
   85240:	f9400bf3 	ldr	x19, [sp, #16]
   85244:	b8605820 	ldr	w0, [x1, w0, uxtw #2]
   85248:	a8c27bfd 	ldp	x29, x30, [sp], #32
   8524c:	12001c00 	and	w0, w0, #0xff
   85250:	d65f03c0 	ret
   85254:	528022c2 	mov	w2, #0x116                 	// #278
   85258:	b00000a1 	adrp	x1, 9a000 <CSWTCH.1+0x10>
   8525c:	900000a0 	adrp	x0, 99000 <_ZN8CGPIOPin7SetModeE9TGPIOModei+0x50>
   85260:	91198021 	add	x1, x1, #0x660
   85264:	913e0000 	add	x0, x0, #0xf80
   85268:	97ffed76 	bl	80840 <uspi_assertion_failed>
   8526c:	52800000 	mov	w0, #0x0                   	// #0
   85270:	f9400bf3 	ldr	x19, [sp, #16]
   85274:	a8c27bfd 	ldp	x29, x30, [sp], #32
   85278:	d65f03c0 	ret
   8527c:	b00000a1 	adrp	x1, 9a000 <CSWTCH.1+0x10>
   85280:	b00000a0 	adrp	x0, 9a000 <CSWTCH.1+0x10>
   85284:	91198021 	add	x1, x1, #0x660
   85288:	911c0000 	add	x0, x0, #0x700
   8528c:	52802062 	mov	w2, #0x103                 	// #259
   85290:	97ffed6c 	bl	80840 <uspi_assertion_failed>
   85294:	f9401660 	ldr	x0, [x19, #40]
   85298:	17ffffe5 	b	8522c <DWHCITransferStageDataGetEndpointType+0x1c>
   8529c:	b00000a1 	adrp	x1, 9a000 <CSWTCH.1+0x10>
   852a0:	b00000a0 	adrp	x0, 9a000 <CSWTCH.1+0x10>
   852a4:	91198021 	add	x1, x1, #0x660
   852a8:	91004000 	add	x0, x0, #0x10
   852ac:	52802042 	mov	w2, #0x102                 	// #258
   852b0:	97ffed64 	bl	80840 <uspi_assertion_failed>
   852b4:	17ffffdc 	b	85224 <DWHCITransferStageDataGetEndpointType+0x14>
   852b8:	d503201f 	nop
   852bc:	d503201f 	nop

00000000000852c0 <DWHCITransferStageDataGetEndpointNumber>:
   852c0:	a9be7bfd 	stp	x29, x30, [sp, #-32]!
   852c4:	910003fd 	mov	x29, sp
   852c8:	f9000bf3 	str	x19, [sp, #16]
   852cc:	aa0003f3 	mov	x19, x0
   852d0:	b40000c0 	cbz	x0, 852e8 <DWHCITransferStageDataGetEndpointNumber+0x28>
   852d4:	f9401660 	ldr	x0, [x19, #40]
   852d8:	b4000180 	cbz	x0, 85308 <DWHCITransferStageDataGetEndpointNumber+0x48>
   852dc:	f9400bf3 	ldr	x19, [sp, #16]
   852e0:	a8c27bfd 	ldp	x29, x30, [sp], #32
   852e4:	140008cf 	b	87620 <USBEndpointGetNumber>
   852e8:	b00000a1 	adrp	x1, 9a000 <CSWTCH.1+0x10>
   852ec:	b00000a0 	adrp	x0, 9a000 <CSWTCH.1+0x10>
   852f0:	91198021 	add	x1, x1, #0x660
   852f4:	91004000 	add	x0, x0, #0x10
   852f8:	528023e2 	mov	w2, #0x11f                 	// #287
   852fc:	97ffed51 	bl	80840 <uspi_assertion_failed>
   85300:	f9401660 	ldr	x0, [x19, #40]
   85304:	b5fffec0 	cbnz	x0, 852dc <DWHCITransferStageDataGetEndpointNumber+0x1c>
   85308:	52802402 	mov	w2, #0x120                 	// #288
   8530c:	b00000a1 	adrp	x1, 9a000 <CSWTCH.1+0x10>
   85310:	b00000a0 	adrp	x0, 9a000 <CSWTCH.1+0x10>
   85314:	91198021 	add	x1, x1, #0x660
   85318:	911c0000 	add	x0, x0, #0x700
   8531c:	97ffed49 	bl	80840 <uspi_assertion_failed>
   85320:	f9401660 	ldr	x0, [x19, #40]
   85324:	f9400bf3 	ldr	x19, [sp, #16]
   85328:	a8c27bfd 	ldp	x29, x30, [sp], #32
   8532c:	140008bd 	b	87620 <USBEndpointGetNumber>

0000000000085330 <DWHCITransferStageDataGetMaxPacketSize>:
   85330:	a9be7bfd 	stp	x29, x30, [sp, #-32]!
   85334:	910003fd 	mov	x29, sp
   85338:	f9000bf3 	str	x19, [sp, #16]
   8533c:	aa0003f3 	mov	x19, x0
   85340:	b40000a0 	cbz	x0, 85354 <DWHCITransferStageDataGetMaxPacketSize+0x24>
   85344:	b9403660 	ldr	w0, [x19, #52]
   85348:	f9400bf3 	ldr	x19, [sp, #16]
   8534c:	a8c27bfd 	ldp	x29, x30, [sp], #32
   85350:	d65f03c0 	ret
   85354:	528024c2 	mov	w2, #0x126                 	// #294
   85358:	b00000a1 	adrp	x1, 9a000 <CSWTCH.1+0x10>
   8535c:	b00000a0 	adrp	x0, 9a000 <CSWTCH.1+0x10>
   85360:	91198021 	add	x1, x1, #0x660
   85364:	91004000 	add	x0, x0, #0x10
   85368:	97ffed36 	bl	80840 <uspi_assertion_failed>
   8536c:	b9403660 	ldr	w0, [x19, #52]
   85370:	f9400bf3 	ldr	x19, [sp, #16]
   85374:	a8c27bfd 	ldp	x29, x30, [sp], #32
   85378:	d65f03c0 	ret
